---
triple:          'arm64-apple-darwin'
binary-path:     crawler
relocations:
  - { offset: 0x4A, size: 0x8, addend: 0x0, symName: __ZL14TagsRecognized, symObjAddr: 0x158DB8, symBinAddr: 0x100018040, symSize: 0x0 }
  - { offset: 0x109, size: 0x8, addend: 0x0, symName: __Z21get_url_length_weighti, symObjAddr: 0x2FC, symBinAddr: 0x100002B30, symSize: 0x34 }
  - { offset: 0x128, size: 0x8, addend: 0x0, symName: __ZZ21get_url_length_weightiE10weightsarr, symObjAddr: 0xE998, symBinAddr: 0x100012548, symSize: 0x0 }
  - { offset: 0x153, size: 0x8, addend: 0x0, symName: __Z9runSocketNSt3__112basic_stringIcNS_11char_traitsIcEENS_9allocatorIcEEEES5_RS5_, symObjAddr: 0x6FC, symBinAddr: 0x100002F30, symSize: 0x81C }
  - { offset: 0x1CAB, size: 0x8, addend: 0x0, symName: _STATIC_RANK, symObjAddr: 0x159988, symBinAddr: 0x100018C10, symSize: 0x0 }
  - { offset: 0x1CD2, size: 0x8, addend: 0x0, symName: _num_created, symObjAddr: 0x15998C, symBinAddr: 0x100018C14, symSize: 0x0 }
  - { offset: 0x179F8, size: 0x8, addend: 0x0, symName: __ZNSt3__124__put_character_sequenceB8ne180100IcNS_11char_traitsIcEEEERNS_13basic_ostreamIT_T0_EES7_PKS4_m, symObjAddr: 0xDFC0, symBinAddr: 0x10001077C, symSize: 0x164 }
  - { offset: 0x1A13D, size: 0x8, addend: 0x0, symName: __ZNSt3__16removeB8ne180100INS_11__wrap_iterIPcEEcEET_S4_S4_RKT0_, symObjAddr: 0x2C64, symBinAddr: 0x100005498, symSize: 0x68 }
  - { offset: 0x1AC99, size: 0x8, addend: 0x0, symName: __ZNSt3__14endlB8ne180100IcNS_11char_traitsIcEEEERNS_13basic_ostreamIT_T0_EES7_, symObjAddr: 0x42B0, symBinAddr: 0x100006AE4, symSize: 0x90 }
  - { offset: 0x1AD27, size: 0x8, addend: 0x0, symName: __ZNSt3__1lsB8ne180100INS_11char_traitsIcEEEERNS_13basic_ostreamIcT_EES6_PKc, symObjAddr: 0x4398, symBinAddr: 0x100006BCC, symSize: 0x34 }
  - { offset: 0x1AD9F, size: 0x8, addend: 0x0, symName: __Z16metric_collectorPv, symObjAddr: 0x43CC, symBinAddr: 0x100006C00, symSize: 0x68 }
  - { offset: 0x1AE1E, size: 0x8, addend: 0x0, symName: __ZNSt3__1lsB8ne180100INS_11char_traitsIcEEEERNS_13basic_ostreamIcT_EES6_c, symObjAddr: 0x4434, symBinAddr: 0x100006C68, symSize: 0x28 }
  - { offset: 0x1AF36, size: 0x8, addend: 0x0, symName: __ZNSt3__120__throw_length_errorB8ne180100EPKc, symObjAddr: 0x4F58, symBinAddr: 0x10000778C, symSize: 0x50 }
  - { offset: 0x1AF74, size: 0x8, addend: 0x0, symName: __ZNSt3__120__throw_out_of_rangeB8ne180100EPKc, symObjAddr: 0x5018, symBinAddr: 0x10000784C, symSize: 0x50 }
  - { offset: 0x1DD70, size: 0x8, addend: 0x0, symName: __ZNSt3__1lsB8ne180100IcNS_11char_traitsIcEENS_9allocatorIcEEEERNS_13basic_ostreamIT_T0_EES9_RKNS_12basic_stringIS6_S7_T1_EE, symObjAddr: 0xDFA4, symBinAddr: 0x100010760, symSize: 0x1C }
  - { offset: 0x1DDB2, size: 0x8, addend: 0x0, symName: __ZNSt3__1lsB8ne180100IcNS_11char_traitsIcEENS_9allocatorIcEEEERNS_13basic_ostreamIT_T0_EES9_RKNS_12basic_stringIS6_S7_T1_EE, symObjAddr: 0xDFA4, symBinAddr: 0x100010760, symSize: 0x1C }
  - { offset: 0x1DDD0, size: 0x8, addend: 0x0, symName: __ZNSt3__1lsB8ne180100IcNS_11char_traitsIcEENS_9allocatorIcEEEERNS_13basic_ostreamIT_T0_EES9_RKNS_12basic_stringIS6_S7_T1_EE, symObjAddr: 0xDFA4, symBinAddr: 0x100010760, symSize: 0x1C }
  - { offset: 0x1DDEE, size: 0x8, addend: 0x0, symName: __ZNSt3__1lsB8ne180100IcNS_11char_traitsIcEENS_9allocatorIcEEEERNS_13basic_ostreamIT_T0_EES9_RKNS_12basic_stringIS6_S7_T1_EE, symObjAddr: 0xDFA4, symBinAddr: 0x100010760, symSize: 0x1C }
  - { offset: 0x1DE0E, size: 0x8, addend: 0x0, symName: __ZNSt3__124__put_character_sequenceB8ne180100IcNS_11char_traitsIcEEEERNS_13basic_ostreamIT_T0_EES7_PKS4_m, symObjAddr: 0xDFC0, symBinAddr: 0x10001077C, symSize: 0x164 }
  - { offset: 0x1E179, size: 0x8, addend: 0x0, symName: __ZNSt3__130__uninitialized_allocator_copyB8ne180100INS_9allocatorI11PostingListEEPS2_S4_S4_EET2_RT_T0_T1_S5_, symObjAddr: 0xC864, symBinAddr: 0x10000F020, symSize: 0xE8 }
  - { offset: 0x1F202, size: 0x8, addend: 0x0, symName: __ZNSt3__116__pad_and_outputB8ne180100IcNS_11char_traitsIcEEEENS_19ostreambuf_iteratorIT_T0_EES6_PKS4_S8_S8_RNS_8ios_baseES4_, symObjAddr: 0xE124, symBinAddr: 0x1000108E0, symSize: 0x1A4 }
  - { offset: 0x20C69, size: 0x8, addend: 0x0, symName: __ZSt28__throw_bad_array_new_lengthB8ne180100v, symObjAddr: 0x4FCC, symBinAddr: 0x100007800, symSize: 0x28 }
  - { offset: 0x20D06, size: 0x8, addend: 0x0, symName: _explore_queue, symObjAddr: 0x159990, symBinAddr: 0x100018C18, symSize: 0x0 }
  - { offset: 0x21127, size: 0x8, addend: 0x0, symName: _links_vector, symObjAddr: 0x1599C0, symBinAddr: 0x100018C48, symSize: 0x0 }
  - { offset: 0x2124B, size: 0x8, addend: 0x0, symName: _chunks, symObjAddr: 0x1599D8, symBinAddr: 0x100018C60, symSize: 0x0 }
  - { offset: 0x21D75, size: 0x8, addend: 0x0, symName: _chunk_locks, symObjAddr: 0x159B90, symBinAddr: 0x100018E18, symSize: 0x0 }
  - { offset: 0x21DDA, size: 0x8, addend: 0x0, symName: _sems, symObjAddr: 0x159CD0, symBinAddr: 0x100018F58, symSize: 0x0 }
  - { offset: 0x21E0D, size: 0x8, addend: 0x0, symName: _queue_lock, symObjAddr: 0x15A8D0, symBinAddr: 0x100019B58, symSize: 0x0 }
  - { offset: 0x21E22, size: 0x8, addend: 0x0, symName: _chunk_lock, symObjAddr: 0x15A910, symBinAddr: 0x100019B98, symSize: 0x0 }
  - { offset: 0x21E37, size: 0x8, addend: 0x0, symName: _cout_lock, symObjAddr: 0x15A950, symBinAddr: 0x100019BD8, symSize: 0x0 }
  - { offset: 0x21E4C, size: 0x8, addend: 0x0, symName: _queue_sem, symObjAddr: 0x15A990, symBinAddr: 0x100019C18, symSize: 0x0 }
  - { offset: 0x21E61, size: 0x8, addend: 0x0, symName: _mt, symObjAddr: 0x15A998, symBinAddr: 0x100019C20, symSize: 0x0 }
  - { offset: 0x21E8E, size: 0x8, addend: 0x0, symName: _ctr, symObjAddr: 0x15B360, symBinAddr: 0x10001A5E8, symSize: 0x0 }
  - { offset: 0x21F0E, size: 0x8, addend: 0x0, symName: _num_processed, symObjAddr: 0x15B364, symBinAddr: 0x10001A5EC, symSize: 0x0 }
  - { offset: 0x21F23, size: 0x8, addend: 0x0, symName: _get_requests, symObjAddr: 0x15B368, symBinAddr: 0x10001A5F0, symSize: 0x0 }
  - { offset: 0x21F38, size: 0x8, addend: 0x0, symName: _getter_lock, symObjAddr: 0x15B370, symBinAddr: 0x10001A5F8, symSize: 0x0 }
  - { offset: 0x21F4D, size: 0x8, addend: 0x0, symName: _getter_request_sem, symObjAddr: 0x15B3B0, symBinAddr: 0x10001A638, symSize: 0x0 }
  - { offset: 0x21F62, size: 0x8, addend: 0x0, symName: _getter_response_sem, symObjAddr: 0x15B3B8, symBinAddr: 0x10001A640, symSize: 0x0 }
  - { offset: 0x21F77, size: 0x8, addend: 0x0, symName: _adder_lock, symObjAddr: 0x15B3C0, symBinAddr: 0x10001A648, symSize: 0x0 }
  - { offset: 0x21F8C, size: 0x8, addend: 0x0, symName: _adder_request_sem, symObjAddr: 0x15B400, symBinAddr: 0x10001A688, symSize: 0x0 }
  - { offset: 0x21FA1, size: 0x8, addend: 0x0, symName: _getterQueue, symObjAddr: 0x15B408, symBinAddr: 0x10001A690, symSize: 0x0 }
  - { offset: 0x22173, size: 0x8, addend: 0x0, symName: _adderQueue, symObjAddr: 0x15B420, symBinAddr: 0x10001A6A8, symSize: 0x0 }
  - { offset: 0x22319, size: 0x8, addend: 0x0, symName: _dispatcher_address, symObjAddr: 0x15B438, symBinAddr: 0x10001A6C0, symSize: 0x0 }
  - { offset: 0x2232E, size: 0x8, addend: 0x0, symName: _adder_socket, symObjAddr: 0x15B450, symBinAddr: 0x10001A6D8, symSize: 0x0 }
  - { offset: 0x22398, size: 0x8, addend: 0x0, symName: __Z6runnerPv, symObjAddr: 0x39B4, symBinAddr: 0x1000061E8, symSize: 0x8FC }
  - { offset: 0x223C4, size: 0x8, addend: 0x0, symName: __ZZ6runnerPvE4time, symObjAddr: 0xE9A8, symBinAddr: 0x100012558, symSize: 0x0 }
  - { offset: 0x24BCE, size: 0x8, addend: 0x0, symName: __ZN12_GLOBAL__N_114articleWeightsE, symObjAddr: 0xE970, symBinAddr: 0x100012520, symSize: 0x0 }
  - { offset: 0x25EF2, size: 0x8, addend: 0x0, symName: __Z20get_numImages_weighti, symObjAddr: 0x0, symBinAddr: 0x100002834, symSize: 0x30 }
  - { offset: 0x25F0F, size: 0x8, addend: 0x0, symName: __Z19get_numLinks_weighti, symObjAddr: 0x30, symBinAddr: 0x100002864, symSize: 0x18 }
  - { offset: 0x25F9A, size: 0x8, addend: 0x0, symName: __Z17get_domain_weight12cstring_view, symObjAddr: 0x48, symBinAddr: 0x10000287C, symSize: 0x22C }
  - { offset: 0x25FCA, size: 0x8, addend: 0x0, symName: __Z17get_domain_weight12cstring_view, symObjAddr: 0x48, symBinAddr: 0x10000287C, symSize: 0x22C }
  - { offset: 0x261BD, size: 0x8, addend: 0x0, symName: __Z26get_document_length_weightRKNSt3__16vectorINS_12basic_stringIcNS_11char_traitsIcEENS_9allocatorIcEEEENS4_IS6_EEEE, symObjAddr: 0x274, symBinAddr: 0x100002AA8, symSize: 0x88 }
  - { offset: 0x261E4, size: 0x8, addend: 0x0, symName: __Z26get_document_length_weightRKNSt3__16vectorINS_12basic_stringIcNS_11char_traitsIcEENS_9allocatorIcEEEENS4_IS6_EEEE, symObjAddr: 0x274, symBinAddr: 0x100002AA8, symSize: 0x88 }
  - { offset: 0x26343, size: 0x8, addend: 0x0, symName: __Z20get_top_level_domain12cstring_view, symObjAddr: 0x330, symBinAddr: 0x100002B64, symSize: 0xD0 }
  - { offset: 0x26525, size: 0x8, addend: 0x0, symName: __ZNK12cstring_view5rfindES_m, symObjAddr: 0x4DFC, symBinAddr: 0x100007630, symSize: 0x148 }
  - { offset: 0x2656B, size: 0x8, addend: 0x0, symName: __ZNK12cstring_view5rfindES_m, symObjAddr: 0x4DFC, symBinAddr: 0x100007630, symSize: 0x148 }
  - { offset: 0x266DF, size: 0x8, addend: 0x0, symName: __Z15get_static_rank12cstring_viewRK10HtmlParser, symObjAddr: 0x400, symBinAddr: 0x100002C34, symSize: 0x1FC }
  - { offset: 0x269EA, size: 0x8, addend: 0x0, symName: __Z14connect_socketP8addrinfo, symObjAddr: 0x5FC, symBinAddr: 0x100002E30, symSize: 0x100 }
  - { offset: 0x276AC, size: 0x8, addend: 0x0, symName: __ZNSt3__112basic_stringIcNS_11char_traitsIcEENS_9allocatorIcEEEC1B8ne180100ILi0EEEPKc, symObjAddr: 0xF18, symBinAddr: 0x10000374C, symSize: 0xB0 }
  - { offset: 0x27A65, size: 0x8, addend: 0x0, symName: __ZNSt3__112basic_stringIcNS_11char_traitsIcEENS_9allocatorIcEEEC1B8ne180100EPKcm, symObjAddr: 0xFC8, symBinAddr: 0x1000037FC, symSize: 0xA8 }
  - { offset: 0x27AD6, size: 0x8, addend: 0x0, symName: __ZNSt3__112basic_stringIcNS_11char_traitsIcEENS_9allocatorIcEEE17__assign_no_aliasILb0EEERS5_PKcm, symObjAddr: 0x5150, symBinAddr: 0x100007984, symSize: 0x144 }
  - { offset: 0x281A6, size: 0x8, addend: 0x0, symName: __ZNSt3__112basic_stringIcNS_11char_traitsIcEENS_9allocatorIcEEE25__init_copy_ctor_externalEPKcm, symObjAddr: 0x5294, symBinAddr: 0x100007AC8, symSize: 0x8C }
  - { offset: 0x281C2, size: 0x8, addend: 0x0, symName: __ZNSt3__112basic_stringIcNS_11char_traitsIcEENS_9allocatorIcEEE17__assign_no_aliasILb1EEERS5_PKcm, symObjAddr: 0x508C, symBinAddr: 0x1000078C0, symSize: 0xC4 }
  - { offset: 0x2877F, size: 0x8, addend: 0x0, symName: __ZNSt3__112basic_stringIcNS_11char_traitsIcEENS_9allocatorIcEEE17__assign_no_aliasILb0EEERS5_PKcm, symObjAddr: 0x5150, symBinAddr: 0x100007984, symSize: 0x144 }
  - { offset: 0x287C0, size: 0x8, addend: 0x0, symName: __ZNKSt3__112basic_stringIcNS_11char_traitsIcEENS_9allocatorIcEEE4findB8ne180100EPKcm, symObjAddr: 0x1070, symBinAddr: 0x1000038A4, symSize: 0xF4 }
  - { offset: 0x289EB, size: 0x8, addend: 0x0, symName: __ZNKSt3__112basic_stringIcNS_11char_traitsIcEENS_9allocatorIcEEE6substrB8ne180100Emm, symObjAddr: 0x1164, symBinAddr: 0x100003998, symSize: 0x104 }
  - { offset: 0x28DF5, size: 0x8, addend: 0x0, symName: __Z7getHTMLNSt3__112basic_stringIcNS_11char_traitsIcEENS_9allocatorIcEEEERS5_, symObjAddr: 0x1268, symBinAddr: 0x100003A9C, symSize: 0xB04 }
  - { offset: 0x28E65, size: 0x8, addend: 0x0, symName: __ZNKSt3__112basic_stringIcNS_11char_traitsIcEENS_9allocatorIcEEE20__throw_length_errorB8ne180100Ev, symObjAddr: 0x4F44, symBinAddr: 0x100007778, symSize: 0x14 }
  - { offset: 0x28E8E, size: 0x8, addend: 0x0, symName: __ZNSt3__120__throw_length_errorB8ne180100EPKc, symObjAddr: 0x4F58, symBinAddr: 0x10000778C, symSize: 0x50 }
  - { offset: 0x28E99, size: 0x8, addend: 0x0, symName: __ZNSt3__112basic_stringIcNS_11char_traitsIcEENS_9allocatorIcEEEC1B8ne180100EPKcm, symObjAddr: 0xFC8, symBinAddr: 0x1000037FC, symSize: 0xA8 }
  - { offset: 0x2921F, size: 0x8, addend: 0x0, symName: __ZNKSt3__112basic_stringIcNS_11char_traitsIcEENS_9allocatorIcEEE4findB8ne180100EPKcm, symObjAddr: 0x1070, symBinAddr: 0x1000038A4, symSize: 0xF4 }
  - { offset: 0x2930F, size: 0x8, addend: 0x0, symName: __ZNKSt3__112basic_stringIcNS_11char_traitsIcEENS_9allocatorIcEEE20__throw_out_of_rangeB8ne180100Ev, symObjAddr: 0x5004, symBinAddr: 0x100007838, symSize: 0x14 }
  - { offset: 0x29338, size: 0x8, addend: 0x0, symName: __ZNSt3__120__throw_out_of_rangeB8ne180100EPKc, symObjAddr: 0x5018, symBinAddr: 0x10000784C, symSize: 0x50 }
  - { offset: 0x294ED, size: 0x8, addend: 0x0, symName: __Z7getHTMLNSt3__112basic_stringIcNS_11char_traitsIcEENS_9allocatorIcEEEERS5_, symObjAddr: 0x1268, symBinAddr: 0x100003A9C, symSize: 0xB04 }
  - { offset: 0x2D531, size: 0x8, addend: 0x0, symName: __ZNSt3__112basic_stringIcNS_11char_traitsIcEENS_9allocatorIcEEE25__init_copy_ctor_externalEPKcm, symObjAddr: 0x5294, symBinAddr: 0x100007AC8, symSize: 0x8C }
  - { offset: 0x2D8A9, size: 0x8, addend: 0x0, symName: __ZNSt3__112basic_stringIcNS_11char_traitsIcEENS_9allocatorIcEEE17__assign_externalEPKcm, symObjAddr: 0x5320, symBinAddr: 0x100007B54, symSize: 0x15C }
  - { offset: 0x2D8FC, size: 0x8, addend: 0x0, symName: __ZNSt3__15queueINS_12basic_stringIcNS_11char_traitsIcEENS_9allocatorIcEEEENS_5dequeIS6_NS4_IS6_EEEEED1Ev, symObjAddr: 0x1D6C, symBinAddr: 0x1000045A0, symSize: 0x4 }
  - { offset: 0x2D92A, size: 0x8, addend: 0x0, symName: __ZNSt3__15queueINS_12basic_stringIcNS_11char_traitsIcEENS_9allocatorIcEEEENS_5dequeIS6_NS4_IS6_EEEEED1Ev, symObjAddr: 0x1D6C, symBinAddr: 0x1000045A0, symSize: 0x4 }
  - { offset: 0x2D946, size: 0x8, addend: 0x0, symName: __ZNSt3__15queueINS_12basic_stringIcNS_11char_traitsIcEENS_9allocatorIcEEEENS_5dequeIS6_NS4_IS6_EEEEED1Ev, symObjAddr: 0x1D6C, symBinAddr: 0x1000045A0, symSize: 0x4 }
  - { offset: 0x2D965, size: 0x8, addend: 0x0, symName: __ZNSt3__16vectorINS_4pairINS_12basic_stringIcNS_11char_traitsIcEENS_9allocatorIcEEEEjEENS5_IS8_EEED1B8ne180100Ev, symObjAddr: 0x1D70, symBinAddr: 0x1000045A4, symSize: 0x70 }
  - { offset: 0x2D978, size: 0x8, addend: 0x0, symName: __ZNSt3__15dequeINS_12basic_stringIcNS_11char_traitsIcEENS_9allocatorIcEEEENS4_IS6_EEED2B8ne180100Ev, symObjAddr: 0x54B0, symBinAddr: 0x100007CE4, symSize: 0x19C }
  - { offset: 0x2E0CA, size: 0x8, addend: 0x0, symName: __ZNSt3__16vectorINS_4pairINS_12basic_stringIcNS_11char_traitsIcEENS_9allocatorIcEEEEjEENS5_IS8_EEED1B8ne180100Ev, symObjAddr: 0x1D70, symBinAddr: 0x1000045A4, symSize: 0x70 }
  - { offset: 0x2E5BB, size: 0x8, addend: 0x0, symName: __ZN10IndexChunkC1Ev, symObjAddr: 0x1DE0, symBinAddr: 0x100004614, symSize: 0x98 }
  - { offset: 0x2E88D, size: 0x8, addend: 0x0, symName: __ZN10IndexChunkC1Ev.cold.1, symObjAddr: 0xE804, symBinAddr: 0x100011F3C, symSize: 0xA8 }
  - { offset: 0x2EB81, size: 0x8, addend: 0x0, symName: __ZN10IndexChunkD2Ev, symObjAddr: 0x585C, symBinAddr: 0x100008090, symSize: 0x104 }
  - { offset: 0x2F342, size: 0x8, addend: 0x0, symName: __ZNSt3__16vectorI11UrlRankPairNS_9allocatorIS1_EEED1B8ne180100Ev, symObjAddr: 0x1E78, symBinAddr: 0x1000046AC, symSize: 0x70 }
  - { offset: 0x2F73D, size: 0x8, addend: 0x0, symName: __ZNSt3__16vectorINS_4pairINS_12basic_stringIcNS_11char_traitsIcEENS_9allocatorIcEEEEyEENS5_IS8_EEED1B8ne180100Ev, symObjAddr: 0x1EE8, symBinAddr: 0x10000471C, symSize: 0x70 }
  - { offset: 0x30085, size: 0x8, addend: 0x0, symName: __Z10url_getterPv, symObjAddr: 0x1F58, symBinAddr: 0x10000478C, symSize: 0x404 }
  - { offset: 0x31280, size: 0x8, addend: 0x0, symName: __Z10get_stringv, symObjAddr: 0x235C, symBinAddr: 0x100004B90, symSize: 0x8C }
  - { offset: 0x317D1, size: 0x8, addend: 0x0, symName: __Z9url_adderPv, symObjAddr: 0x23E8, symBinAddr: 0x100004C1C, symSize: 0x264 }
  - { offset: 0x322D4, size: 0x8, addend: 0x0, symName: __Z7add_urlONSt3__112basic_stringIcNS_11char_traitsIcEENS_9allocatorIcEEEEy, symObjAddr: 0x264C, symBinAddr: 0x100004E80, symSize: 0xF8 }
  - { offset: 0x325DE, size: 0x8, addend: 0x0, symName: __ZNSt3__16vectorINS_4pairINS_12basic_stringIcNS_11char_traitsIcEENS_9allocatorIcEEEEyEENS5_IS8_EEE24__emplace_back_slow_pathIJS7_RyEEEPS8_DpOT_, symObjAddr: 0x5974, symBinAddr: 0x100008194, symSize: 0x154 }
  - { offset: 0x32D3D, size: 0x8, addend: 0x0, symName: __Z9isEnglishRKNSt3__112basic_stringIcNS_11char_traitsIcEENS_9allocatorIcEEEE, symObjAddr: 0x2744, symBinAddr: 0x100004F78, symSize: 0x48 }
  - { offset: 0x32D69, size: 0x8, addend: 0x0, symName: __Z9isEnglishRKNSt3__112basic_stringIcNS_11char_traitsIcEENS_9allocatorIcEEEE, symObjAddr: 0x2744, symBinAddr: 0x100004F78, symSize: 0x48 }
  - { offset: 0x32DA4, size: 0x8, addend: 0x0, symName: __Z9isEnglishRKNSt3__112basic_stringIcNS_11char_traitsIcEENS_9allocatorIcEEEE, symObjAddr: 0x2744, symBinAddr: 0x100004F78, symSize: 0x48 }
  - { offset: 0x32DBF, size: 0x8, addend: 0x0, symName: __Z9isEnglishRKNSt3__112basic_stringIcNS_11char_traitsIcEENS_9allocatorIcEEEE, symObjAddr: 0x2744, symBinAddr: 0x100004F78, symSize: 0x48 }
  - { offset: 0x32DDB, size: 0x8, addend: 0x0, symName: __Z9isEnglishRKNSt3__112basic_stringIcNS_11char_traitsIcEENS_9allocatorIcEEEE, symObjAddr: 0x2744, symBinAddr: 0x100004F78, symSize: 0x48 }
  - { offset: 0x32F6C, size: 0x8, addend: 0x0, symName: __Z11cleanStringRNSt3__112basic_stringIcNS_11char_traitsIcEENS_9allocatorIcEEEE, symObjAddr: 0x278C, symBinAddr: 0x100004FC0, symSize: 0x438 }
  - { offset: 0x33B77, size: 0x8, addend: 0x0, symName: __ZNSt3__112basic_stringIcNS_11char_traitsIcEENS_9allocatorIcEEE5eraseB8ne180100ENS_11__wrap_iterIPKcEES9_, symObjAddr: 0x2BC4, symBinAddr: 0x1000053F8, symSize: 0xA0 }
  - { offset: 0x33B89, size: 0x8, addend: 0x0, symName: __ZNSt3__112basic_stringIcNS_11char_traitsIcEENS_9allocatorIcEEE26__erase_external_with_moveEmm, symObjAddr: 0x5ADC, symBinAddr: 0x1000082E8, symSize: 0x90 }
  - { offset: 0x33D90, size: 0x8, addend: 0x0, symName: __ZNSt3__112basic_stringIcNS_11char_traitsIcEENS_9allocatorIcEEE5eraseB8ne180100ENS_11__wrap_iterIPKcEES9_, symObjAddr: 0x2BC4, symBinAddr: 0x1000053F8, symSize: 0xA0 }
  - { offset: 0x34284, size: 0x8, addend: 0x0, symName: __Z16splitHyphenWordsRKNSt3__112basic_stringIcNS_11char_traitsIcEENS_9allocatorIcEEEE, symObjAddr: 0x2CCC, symBinAddr: 0x100005500, symSize: 0x3A0 }
  - { offset: 0x3548C, size: 0x8, addend: 0x0, symName: __ZNSt3__16vectorINS_12basic_stringIcNS_11char_traitsIcEENS_9allocatorIcEEEENS4_IS6_EEE21__push_back_slow_pathIRKS6_EEPS6_OT_, symObjAddr: 0x5B6C, symBinAddr: 0x100008378, symSize: 0x1D4 }
  - { offset: 0x35C0D, size: 0x8, addend: 0x0, symName: __ZNSt3__16vectorINS_12basic_stringIcNS_11char_traitsIcEENS_9allocatorIcEEEENS4_IS6_EEED1B8ne180100Ev, symObjAddr: 0x3100, symBinAddr: 0x100005934, symSize: 0x70 }
  - { offset: 0x35E92, size: 0x8, addend: 0x0, symName: __ZNSt3__16vectorINS_12basic_stringIcNS_11char_traitsIcEENS_9allocatorIcEEEENS4_IS6_EEE9push_backB8ne180100ERKS6_, symObjAddr: 0x306C, symBinAddr: 0x1000058A0, symSize: 0x94 }
  - { offset: 0x36145, size: 0x8, addend: 0x0, symName: __Z14getHostFromUrlRKNSt3__112basic_stringIcNS_11char_traitsIcEENS_9allocatorIcEEEE, symObjAddr: 0x3170, symBinAddr: 0x1000059A4, symSize: 0x198 }
  - { offset: 0x367D4, size: 0x8, addend: 0x0, symName: __Z15getHTML_wrapperPv, symObjAddr: 0x3308, symBinAddr: 0x100005B3C, symSize: 0xA0 }
  - { offset: 0x367E5, size: 0x8, addend: 0x0, symName: __Z15getHTML_wrapperPv, symObjAddr: 0x3308, symBinAddr: 0x100005B3C, symSize: 0xA0 }
  - { offset: 0x36B1B, size: 0x8, addend: 0x0, symName: __Z9check_url12cstring_view, symObjAddr: 0x33A8, symBinAddr: 0x100005BDC, symSize: 0xDC }
  - { offset: 0x36B3B, size: 0x8, addend: 0x0, symName: __Z9check_url12cstring_view, symObjAddr: 0x33A8, symBinAddr: 0x100005BDC, symSize: 0xDC }
  - { offset: 0x36E68, size: 0x8, addend: 0x0, symName: __Z12add_to_indexPv, symObjAddr: 0x3484, symBinAddr: 0x100005CB8, symSize: 0x530 }
  - { offset: 0x3841D, size: 0x8, addend: 0x0, symName: __ZNSt3__16vectorI3DocNS_9allocatorIS1_EEE24__emplace_back_slow_pathIJRNS_12basic_stringIcNS_11char_traitsIcEENS2_IcEEEERmEEEPS1_DpOT_, symObjAddr: 0x5DB8, symBinAddr: 0x1000085B0, symSize: 0x158 }
  - { offset: 0x38B4E, size: 0x8, addend: 0x0, symName: __ZN13InvertedIndex8add_wordERNSt3__112basic_stringIcNS0_11char_traitsIcEENS0_9allocatorIcEEEEmb, symObjAddr: 0x5F10, symBinAddr: 0x100008708, symSize: 0x30C }
  - { offset: 0x38B69, size: 0x8, addend: 0x0, symName: __ZN13InvertedIndex8add_wordERNSt3__112basic_stringIcNS0_11char_traitsIcEENS0_9allocatorIcEEEEmb, symObjAddr: 0x5F10, symBinAddr: 0x100008708, symSize: 0x30C }
  - { offset: 0x39A76, size: 0x8, addend: 0x0, symName: __ZN10HtmlParserD2Ev, symObjAddr: 0xA6C4, symBinAddr: 0x10000CE94, symSize: 0x214 }
  - { offset: 0x3AC06, size: 0x8, addend: 0x0, symName: __ZN10HtmlParserC2EPKcm, symObjAddr: 0x7054, symBinAddr: 0x100009838, symSize: 0x1554 }
  - { offset: 0x3F310, size: 0x8, addend: 0x0, symName: __ZN10ThreadArgsD1Ev, symObjAddr: 0x4340, symBinAddr: 0x100006B74, symSize: 0x58 }
  - { offset: 0x3F5D7, size: 0x8, addend: 0x0, symName: __Z16metric_collectorPv, symObjAddr: 0x43CC, symBinAddr: 0x100006C00, symSize: 0x68 }
  - { offset: 0x3FB61, size: 0x8, addend: 0x0, symName: _main, symObjAddr: 0x445C, symBinAddr: 0x100006C90, symSize: 0x9A0 }
  - { offset: 0x413C0, size: 0x8, addend: 0x0, symName: __ZNSt3__112basic_stringIcNS_11char_traitsIcEENS_9allocatorIcEEE17__assign_externalEPKc, symObjAddr: 0x547C, symBinAddr: 0x100007CB0, symSize: 0x34 }
  - { offset: 0x4144B, size: 0x8, addend: 0x0, symName: __ZNSt3__15dequeINS_12basic_stringIcNS_11char_traitsIcEENS_9allocatorIcEEEENS4_IS6_EEED2B8ne180100Ev, symObjAddr: 0x54B0, symBinAddr: 0x100007CE4, symSize: 0x19C }
  - { offset: 0x41456, size: 0x8, addend: 0x0, symName: __ZNSt3__16vectorINS_12basic_stringIcNS_11char_traitsIcEENS_9allocatorIcEEEENS4_IS6_EEE21__push_back_slow_pathIS6_EEPS6_OT_, symObjAddr: 0xA8D8, symBinAddr: 0x10000D0A8, symSize: 0x168 }
  - { offset: 0x41AB5, size: 0x8, addend: 0x0, symName: __ZN9IndexFileC2EjR10IndexChunk, symObjAddr: 0xAA40, symBinAddr: 0x10000D210, symSize: 0x274 }
  - { offset: 0x41BA1, size: 0x8, addend: 0x0, symName: __ZN9IndexFileC2EjR10IndexChunk, symObjAddr: 0xAA40, symBinAddr: 0x10000D210, symSize: 0x274 }
  - { offset: 0x42421, size: 0x8, addend: 0x0, symName: __ZNSt12length_errorC1B8ne180100EPKc, symObjAddr: 0x4FA8, symBinAddr: 0x1000077DC, symSize: 0x24 }
  - { offset: 0x424A9, size: 0x8, addend: 0x0, symName: __ZNSt12out_of_rangeC1B8ne180100EPKc, symObjAddr: 0x5068, symBinAddr: 0x10000789C, symSize: 0x24 }
  - { offset: 0x4264A, size: 0x8, addend: 0x0, symName: __ZNSt3__112basic_stringIcNS_11char_traitsIcEENS_9allocatorIcEEE17__assign_externalEPKcm, symObjAddr: 0x5320, symBinAddr: 0x100007B54, symSize: 0x15C }
  - { offset: 0x42CCB, size: 0x8, addend: 0x0, symName: __ZNSt3__112basic_stringIcNS_11char_traitsIcEENS_9allocatorIcEEE17__assign_externalEPKc, symObjAddr: 0x547C, symBinAddr: 0x100007CB0, symSize: 0x34 }
  - { offset: 0x43074, size: 0x8, addend: 0x0, symName: __ZNSt3__16vectorI3DocNS_9allocatorIS1_EEED1B8ne180100Ev, symObjAddr: 0x564C, symBinAddr: 0x100007E80, symSize: 0x70 }
  - { offset: 0x43323, size: 0x8, addend: 0x0, symName: __ZNKSt3__16vectorI3DocNS_9allocatorIS1_EEE20__throw_length_errorB8ne180100Ev, symObjAddr: 0x56BC, symBinAddr: 0x100007EF0, symSize: 0x14 }
  - { offset: 0x4334C, size: 0x8, addend: 0x0, symName: __ZNSt3__16vectorI11PostingListNS_9allocatorIS1_EEED1B8ne180100Ev, symObjAddr: 0x56D0, symBinAddr: 0x100007F04, symSize: 0x78 }
  - { offset: 0x434B9, size: 0x8, addend: 0x0, symName: __ZNSt3__16vectorI11PostingListNS_9allocatorIS1_EEED1B8ne180100Ev, symObjAddr: 0x56D0, symBinAddr: 0x100007F04, symSize: 0x78 }
  - { offset: 0x437B4, size: 0x8, addend: 0x0, symName: __ZNSt3__15dequeI4PostNS_9allocatorIS1_EEED2B8ne180100Ev, symObjAddr: 0x5748, symBinAddr: 0x100007F7C, symSize: 0xC4 }
  - { offset: 0x43EA8, size: 0x8, addend: 0x0, symName: __ZN6BucketIKNSt3__112basic_stringIcNS0_11char_traitsIcEENS0_9allocatorIcEEEEmED1Ev, symObjAddr: 0x580C, symBinAddr: 0x100008040, symSize: 0x50 }
  - { offset: 0x4464E, size: 0x8, addend: 0x0, symName: __ZNSt3__114__split_bufferINS_12basic_stringIcNS_11char_traitsIcEENS_9allocatorIcEEEERNS4_IS6_EEED1Ev, symObjAddr: 0x5D40, symBinAddr: 0x10000854C, symSize: 0x64 }
  - { offset: 0x44D4A, size: 0x8, addend: 0x0, symName: __ZNK9HashTableIKNSt3__112basic_stringIcNS0_11char_traitsIcEENS0_9allocatorIcEEEEmE4FindES6_, symObjAddr: 0x621C, symBinAddr: 0x100008A14, symSize: 0x134 }
  - { offset: 0x44FBF, size: 0x8, addend: 0x0, symName: __ZNSt3__15dequeI4PostNS_9allocatorIS1_EEE19__add_back_capacityEv, symObjAddr: 0x6774, symBinAddr: 0x100008F58, symSize: 0x5BC }
  - { offset: 0x463AD, size: 0x8, addend: 0x0, symName: __ZNSt3__16vectorI11PostingListNS_9allocatorIS1_EEE24__emplace_back_slow_pathIJEEEPS1_DpOT_, symObjAddr: 0x6598, symBinAddr: 0x100008D90, symSize: 0x1C8 }
  - { offset: 0x46B35, size: 0x8, addend: 0x0, symName: __ZN9HashTableIKNSt3__112basic_stringIcNS0_11char_traitsIcEENS0_9allocatorIcEEEEmE4FindES6_m, symObjAddr: 0x6350, symBinAddr: 0x100008B48, symSize: 0x248 }
  - { offset: 0x47B92, size: 0x8, addend: 0x0, symName: __ZNSt3__114__split_bufferIP4PostNS_9allocatorIS2_EEE9push_backEOS2_, symObjAddr: 0x6D30, symBinAddr: 0x100009514, symSize: 0x18C }
  - { offset: 0x48084, size: 0x8, addend: 0x0, symName: __ZNSt3__114__split_bufferIP4PostNS_9allocatorIS2_EEE10push_frontEOS2_, symObjAddr: 0x6EBC, symBinAddr: 0x1000096A0, symSize: 0x198 }
  - { offset: 0x4808F, size: 0x8, addend: 0x0, symName: __ZNSt3__114__split_bufferIP4PostNS_9allocatorIS2_EEE10push_frontEOS2_, symObjAddr: 0x6EBC, symBinAddr: 0x1000096A0, symSize: 0x198 }
  - { offset: 0x48562, size: 0x8, addend: 0x0, symName: __ZN10HtmlParserC2EPKcm, symObjAddr: 0x7054, symBinAddr: 0x100009838, symSize: 0x1554 }
  - { offset: 0x486AF, size: 0x8, addend: 0x0, symName: __ZNSt3__112basic_stringIcNS_11char_traitsIcEENS_9allocatorIcEEE18__insert_with_sizeIPKcS8_EENS_11__wrap_iterIPcEENS9_IS8_EET_T0_m, symObjAddr: 0x9FA4, symBinAddr: 0x10000C774, symSize: 0x194 }
  - { offset: 0x48D11, size: 0x8, addend: 0x0, symName: __ZN10HtmlParser14extract_anchorEPKcmmb, symObjAddr: 0x85A8, symBinAddr: 0x10000AD8C, symSize: 0x998 }
  - { offset: 0x4A527, size: 0x8, addend: 0x0, symName: __ZN10HtmlParser13extract_embedEPKcmm, symObjAddr: 0x9194, symBinAddr: 0x10000B978, symSize: 0x400 }
  - { offset: 0x4B573, size: 0x8, addend: 0x0, symName: __ZN10HtmlParser12extract_baseEPKcmm, symObjAddr: 0x8F40, symBinAddr: 0x10000B724, symSize: 0x254 }
  - { offset: 0x4B9DF, size: 0x8, addend: 0x0, symName: __ZN10HtmlParser13extract_embedEPKcmm, symObjAddr: 0x9194, symBinAddr: 0x10000B978, symSize: 0x400 }
  - { offset: 0x4B9F1, size: 0x8, addend: 0x0, symName: __ZNSt3__16vectorI4LinkNS_9allocatorIS1_EEED1B8ne180100Ev, symObjAddr: 0x9594, symBinAddr: 0x10000BD78, symSize: 0xC4 }
  - { offset: 0x4C0E8, size: 0x8, addend: 0x0, symName: __ZNSt3__16vectorI4LinkNS_9allocatorIS1_EEE22__construct_one_at_endB8ne180100IJRNS_12basic_stringIcNS_11char_traitsIcEENS2_IcEEEEEEEvDpOT_, symObjAddr: 0x9658, symBinAddr: 0x10000BE3C, symSize: 0xD8 }
  - { offset: 0x4C5F6, size: 0x8, addend: 0x0, symName: __ZNSt3__16vectorI4LinkNS_9allocatorIS1_EEE24__emplace_back_slow_pathIJRNS_12basic_stringIcNS_11char_traitsIcEENS2_IcEEEEEEEPS1_DpOT_, symObjAddr: 0x9730, symBinAddr: 0x10000BF14, symSize: 0x2D4 }
  - { offset: 0x4D62B, size: 0x8, addend: 0x0, symName: __ZNSt3__16vectorI4LinkNS_9allocatorIS1_EEE21__push_back_slow_pathIRKS1_EEPS1_OT_, symObjAddr: 0x9B60, symBinAddr: 0x10000C330, symSize: 0x280 }
  - { offset: 0x4E29E, size: 0x8, addend: 0x0, symName: __ZNSt3__16vectorINS_12basic_stringIcNS_11char_traitsIcEENS_9allocatorIcEEEENS4_IS6_EEE16__init_with_sizeB8ne180100IPS6_SA_EEvT_T0_m, symObjAddr: 0x9DE0, symBinAddr: 0x10000C5B0, symSize: 0x130 }
  - { offset: 0x4E81B, size: 0x8, addend: 0x0, symName: __ZN4LinkD1Ev, symObjAddr: 0x9A18, symBinAddr: 0x10000C1E8, symSize: 0x94 }
  - { offset: 0x4F122, size: 0x8, addend: 0x0, symName: __ZNSt3__114__split_bufferI4LinkRNS_9allocatorIS1_EEED2Ev, symObjAddr: 0x9AAC, symBinAddr: 0x10000C27C, symSize: 0xB4 }
  - { offset: 0x4F80F, size: 0x8, addend: 0x0, symName: __ZNSt3__128__exception_guard_exceptionsINS_6vectorINS_12basic_stringIcNS_11char_traitsIcEENS_9allocatorIcEEEENS5_IS7_EEE16__destroy_vectorEED1B8ne180100Ev, symObjAddr: 0x9F10, symBinAddr: 0x10000C6E0, symSize: 0x94 }
  - { offset: 0x4FBDE, size: 0x8, addend: 0x0, symName: __ZNSt3__112basic_stringIcNS_11char_traitsIcEENS_9allocatorIcEEE23__insert_from_safe_copyB8ne180100IPKcS8_EENS_11__wrap_iterIPcEEmmT_T0_, symObjAddr: 0xA138, symBinAddr: 0x10000C908, symSize: 0x2C8 }
  - { offset: 0x505BC, size: 0x8, addend: 0x0, symName: __ZNSt3__112basic_stringIcNS_11char_traitsIcEENS_9allocatorIcEEE23__insert_from_safe_copyB8ne180100INS_11__wrap_iterIPKcEESA_EENS7_IPcEEmmT_T0_, symObjAddr: 0xA400, symBinAddr: 0x10000CBD0, symSize: 0x2C4 }
  - { offset: 0x505E0, size: 0x8, addend: 0x0, symName: __ZNSt3__112basic_stringIcNS_11char_traitsIcEENS_9allocatorIcEEE23__insert_from_safe_copyB8ne180100INS_11__wrap_iterIPKcEESA_EENS7_IPcEEmmT_T0_, symObjAddr: 0xA400, symBinAddr: 0x10000CBD0, symSize: 0x2C4 }
  - { offset: 0x50FBE, size: 0x8, addend: 0x0, symName: __ZN10HtmlParserD2Ev, symObjAddr: 0xA6C4, symBinAddr: 0x10000CE94, symSize: 0x214 }
  - { offset: 0x51584, size: 0x8, addend: 0x0, symName: __ZN9IndexFile14serializeChunkERK10IndexChunkRNSt3__16vectorIhNS3_9allocatorIhEEEER9HashTableIKNS3_12basic_stringIcNS3_11char_traitsIcEENS5_IcEEEEmE, symObjAddr: 0xACB4, symBinAddr: 0x10000D484, symSize: 0x158 }
  - { offset: 0x51DB5, size: 0x8, addend: 0x0, symName: __ZN8HashFileC2EPKcPK9HashTableIKNSt3__112basic_stringIcNS3_11char_traitsIcEENS3_9allocatorIcEEEEmE, symObjAddr: 0xE2C8, symBinAddr: 0x100010A84, symSize: 0x198 }
  - { offset: 0x52084, size: 0x8, addend: 0x0, symName: __ZN14FileDescriptorD1Ev, symObjAddr: 0xAE0C, symBinAddr: 0x10000D5DC, symSize: 0x34 }
  - { offset: 0x5219D, size: 0x8, addend: 0x0, symName: __ZNSt3__16vectorI3DocNS_9allocatorIS1_EEE16__init_with_sizeB8ne180100IPS1_S6_EEvT_T0_m, symObjAddr: 0xC5C4, symBinAddr: 0x10000ED80, symSize: 0x12C }
  - { offset: 0x52782, size: 0x8, addend: 0x0, symName: __ZNSt3__16vectorI11PostingListNS_9allocatorIS1_EEEC2ERKS4_, symObjAddr: 0xC784, symBinAddr: 0x10000EF40, symSize: 0xE0 }
  - { offset: 0x52A01, size: 0x8, addend: 0x0, symName: __ZN9IndexFile16serializeUrlListERNSt3__16vectorIhNS0_9allocatorIhEEEERKNS1_I3DocNS2_IS6_EEEE, symObjAddr: 0xAE54, symBinAddr: 0x10000D610, symSize: 0x89C }
  - { offset: 0x54400, size: 0x8, addend: 0x0, symName: __ZN9IndexFile21serializePostingListsERNSt3__16vectorIhNS0_9allocatorIhEEEERKNS1_I11PostingListNS2_IS6_EEEER9HashTableIKNS0_12basic_stringIcNS0_11char_traitsIcEENS2_IcEEEEmE, symObjAddr: 0xB6F0, symBinAddr: 0x10000DEAC, symSize: 0xED4 }
  - { offset: 0x58253, size: 0x8, addend: 0x0, symName: __ZNSt3__16vectorIhNS_9allocatorIhEEE18__insert_with_sizeB8ne180100IPhS5_EENS_11__wrap_iterIS5_EENS6_IPKhEET_T0_l, symObjAddr: 0xD528, symBinAddr: 0x10000FCE4, symSize: 0x2BC }
  - { offset: 0x58DAA, size: 0x8, addend: 0x0, symName: __ZNSt3__16vectorIhNS_9allocatorIhEEE18__insert_with_sizeB8ne180100INS_11__wrap_iterIPKcEES8_EENS5_IPhEENS5_IPKhEET_T0_l, symObjAddr: 0xD7E4, symBinAddr: 0x10000FFA0, symSize: 0x420 }
  - { offset: 0x58DBC, size: 0x8, addend: 0x0, symName: __ZNSt3__16vectorIhNS_9allocatorIhEEE18__insert_with_sizeB8ne180100INS_11__wrap_iterIPKcEES8_EENS5_IPhEENS5_IPKhEET_T0_l, symObjAddr: 0xD7E4, symBinAddr: 0x10000FFA0, symSize: 0x420 }
  - { offset: 0x598E2, size: 0x8, addend: 0x0, symName: __ZNSt3__16vectorIhNS_9allocatorIhEEE18__insert_with_sizeB8ne180100INS_11__wrap_iterIPhEES7_EES7_NS5_IPKhEET_T0_l, symObjAddr: 0xDC04, symBinAddr: 0x1000103C0, symSize: 0x3A0 }
  - { offset: 0x59906, size: 0x8, addend: 0x0, symName: __ZNSt3__16vectorIhNS_9allocatorIhEEE18__insert_with_sizeB8ne180100INS_11__wrap_iterIPhEES7_EES7_NS5_IPKhEET_T0_l, symObjAddr: 0xDC04, symBinAddr: 0x1000103C0, symSize: 0x3A0 }
  - { offset: 0x5A515, size: 0x8, addend: 0x0, symName: __ZNSt3__1lsB8ne180100IcNS_11char_traitsIcEENS_9allocatorIcEEEERNS_13basic_ostreamIT_T0_EES9_RKNS_12basic_stringIS6_S7_T1_EE, symObjAddr: 0xDFA4, symBinAddr: 0x100010760, symSize: 0x1C }
  - { offset: 0x5AC88, size: 0x8, addend: 0x0, symName: __ZNSt3__128__exception_guard_exceptionsINS_6vectorI3DocNS_9allocatorIS2_EEE16__destroy_vectorEED1B8ne180100Ev, symObjAddr: 0xC6F0, symBinAddr: 0x10000EEAC, symSize: 0x94 }
  - { offset: 0x5B0B5, size: 0x8, addend: 0x0, symName: __ZNSt3__16vectorI11PostingListNS_9allocatorIS1_EEEC2ERKS4_.cold.1, symObjAddr: 0xE8AC, symBinAddr: 0x100011FE4, symSize: 0x60 }
  - { offset: 0x5B465, size: 0x8, addend: 0x0, symName: __ZNSt3__15dequeI4PostNS_9allocatorIS1_EEEC1ERKS4_, symObjAddr: 0xC94C, symBinAddr: 0x10000F108, symSize: 0x110 }
  - { offset: 0x5B756, size: 0x8, addend: 0x0, symName: __ZNSt3__15dequeI4PostNS_9allocatorIS1_EEE18__append_with_sizeB8ne180100INS_16__deque_iteratorIS1_PKS1_RS7_PKS8_lLl512EEEEEvT_m, symObjAddr: 0xCA5C, symBinAddr: 0x10000F218, symSize: 0x174 }
  - { offset: 0x5BB55, size: 0x8, addend: 0x0, symName: __ZNSt3__15dequeI4PostNS_9allocatorIS1_EEE19__add_back_capacityEm, symObjAddr: 0xCBD0, symBinAddr: 0x10000F38C, symSize: 0x958 }
  - { offset: 0x5DF98, size: 0x8, addend: 0x0, symName: __ZN8HashBlob13BytesRequiredEPK9HashTableIKNSt3__112basic_stringIcNS1_11char_traitsIcEENS1_9allocatorIcEEEEmE, symObjAddr: 0xE460, symBinAddr: 0x100010C1C, symSize: 0x1AC }
  - { offset: 0x5E0E0, size: 0x8, addend: 0x0, symName: __ZN8HashBlob5WriteEPS_mPK9HashTableIKNSt3__112basic_stringIcNS2_11char_traitsIcEENS2_9allocatorIcEEEEmE, symObjAddr: 0xE60C, symBinAddr: 0x100010DC8, symSize: 0x1F8 }
  - { offset: 0x5E42C, size: 0x8, addend: 0x0, symName: _OUTLINED_FUNCTION_0, symObjAddr: 0xE90C, symBinAddr: 0x100010FC0, symSize: 0xC }
  - { offset: 0x60794, size: 0x8, addend: 0x0, symName: __Z17LookupPossibleTagPKcS0_, symObjAddr: 0x0, symBinAddr: 0x100011E18, symSize: 0x100 }
  - { offset: 0x607C0, size: 0x8, addend: 0x0, symName: __ZL14TagsRecognized, symObjAddr: 0x128, symBinAddr: 0x1000143A8, symSize: 0x0 }
  - { offset: 0x6083F, size: 0x8, addend: 0x0, symName: __Z17LookupPossibleTagPKcS0_, symObjAddr: 0x0, symBinAddr: 0x100011E18, symSize: 0x100 }
  - { offset: 0x6095D, size: 0x8, addend: 0x0, symName: __Z11printAction13DesiredAction, symObjAddr: 0x100, symBinAddr: 0x100011F18, symSize: 0x24 }
...
