---
triple:          'arm64-apple-darwin'
binary-path:     Hashtable
relocations:
  - { offsetInCU: 0x94, offset: 0x94, size: 0x8, addend: 0x0, symName: __ZNK5HashTIPKcEclES1_, symObjAddr: 0x23A0, symBinAddr: 0x100004A04, symSize: 0x84 }
  - { offsetInCU: 0xB7, offset: 0xB7, size: 0x8, addend: 0x0, symName: __ZZNK5HashTIPKcEclES1_E14FnvOffsetBasis, symObjAddr: 0x2A48, symBinAddr: 0x10000BA40, symSize: 0x0 }
  - { offsetInCU: 0xCC, offset: 0xCC, size: 0x8, addend: 0x0, symName: __ZZNK5HashTIPKcEclES1_E8FnvPrime, symObjAddr: 0x2A50, symBinAddr: 0x10000BA48, symSize: 0x0 }
  - { offsetInCU: 0x3037, offset: 0x3037, size: 0x8, addend: 0x0, symName: __ZNSt3__16chronomiB8ue170006IxNS_5ratioILl1ELl1000000000EEExS3_EENS_11common_typeIJNS0_8durationIT_T0_EENS5_IT1_T2_EEEE4typeERKS8_RKSB_, symObjAddr: 0x908, symBinAddr: 0x100002F6C, symSize: 0x70 }
  - { offsetInCU: 0x31D8, offset: 0x31D8, size: 0x8, addend: 0x0, symName: __ZNSt3__16chronomiB8ue170006INS0_12steady_clockENS0_8durationIxNS_5ratioILl1ELl1000000000EEEEES6_EENS_11common_typeIJT0_T1_EE4typeERKNS0_10time_pointIT_S8_EERKNSC_ISD_S9_EE, symObjAddr: 0x898, symBinAddr: 0x100002EFC, symSize: 0x58 }
  - { offsetInCU: 0x32D0, offset: 0x32D0, size: 0x8, addend: 0x0, symName: __ZNSt3__124__put_character_sequenceB8ue170006IcNS_11char_traitsIcEEEERNS_13basic_ostreamIT_T0_EES7_PKS4_m, symObjAddr: 0x998, symBinAddr: 0x100002FFC, symSize: 0x1F4 }
  - { offsetInCU: 0x59E4, offset: 0x59E4, size: 0x8, addend: 0x0, symName: __ZNSt3__1lsB8ue170006INS_11char_traitsIcEEEERNS_13basic_ostreamIcT_EES6_PKc, symObjAddr: 0x24, symBinAddr: 0x100002688, symSize: 0x48 }
  - { offsetInCU: 0x5A2A, offset: 0x5A2A, size: 0x8, addend: 0x0, symName: __ZNSt3__14endlB8ue170006IcNS_11char_traitsIcEEEERNS_13basic_ostreamIT_T0_EES7_, symObjAddr: 0x228, symBinAddr: 0x10000288C, symSize: 0x58 }
  - { offsetInCU: 0x5A86, offset: 0x5A86, size: 0x8, addend: 0x0, symName: __ZNSt3__116__pad_and_outputB8ue170006IcNS_11char_traitsIcEEEENS_19ostreambuf_iteratorIT_T0_EES6_PKS4_S8_S8_RNS_8ios_baseES4_, symObjAddr: 0xBF0, symBinAddr: 0x100003254, symSize: 0x248 }
  - { offsetInCU: 0x5B55, offset: 0x5B55, size: 0x8, addend: 0x0, symName: __ZNSt3__112__to_addressB8ue170006IKcEEPT_S3_, symObjAddr: 0x1160, symBinAddr: 0x1000037C4, symSize: 0x14 }
  - { offsetInCU: 0x5B8A, offset: 0x5B8A, size: 0x8, addend: 0x0, symName: __ZNSt3__130__libcpp_is_constant_evaluatedB8ue170006Ev, symObjAddr: 0x128C, symBinAddr: 0x1000038F0, symSize: 0xC }
  - { offsetInCU: 0x5BDA, offset: 0x5BDA, size: 0x8, addend: 0x0, symName: __ZNSt3__19use_facetB8ue170006INS_5ctypeIcEEEERKT_RKNS_6localeE, symObjAddr: 0x1444, symBinAddr: 0x100003AA8, symSize: 0x2C }
  - { offsetInCU: 0x60A7, offset: 0x60A7, size: 0x8, addend: 0x0, symName: __ZNSt3__118__constexpr_strlenB8ue170006EPKc, symObjAddr: 0x14DC, symBinAddr: 0x100003B40, symSize: 0x24 }
  - { offsetInCU: 0x60D3, offset: 0x60D3, size: 0x8, addend: 0x0, symName: __ZNSt3__112__to_addressB8ue170006INS_12basic_stringIcNS_11char_traitsIcEENS_9allocatorIcEEEEEEPT_S8_, symObjAddr: 0x19CC, symBinAddr: 0x100004030, symSize: 0x14 }
  - { offsetInCU: 0x6108, offset: 0x6108, size: 0x8, addend: 0x0, symName: __ZNSt3__119__libcpp_deallocateB8ue170006EPvmm, symObjAddr: 0x1AEC, symBinAddr: 0x100004150, symSize: 0x30 }
  - { offsetInCU: 0x6150, offset: 0x6150, size: 0x8, addend: 0x0, symName: __ZNSt3__127__do_deallocate_handle_sizeB8ue170006IJEEEvPvmDpT_, symObjAddr: 0x1B1C, symBinAddr: 0x100004180, symSize: 0x28 }
  - { offsetInCU: 0x618E, offset: 0x618E, size: 0x8, addend: 0x0, symName: __ZNSt3__124__libcpp_operator_deleteB8ue170006IJPvEEEvDpT_, symObjAddr: 0x1B44, symBinAddr: 0x1000041A8, symSize: 0x24 }
  - { offsetInCU: 0x61C3, offset: 0x61C3, size: 0x8, addend: 0x0, symName: __ZNSt3__14swapB8ue170006ImEEvRT_S2_, symObjAddr: 0x2188, symBinAddr: 0x1000047EC, symSize: 0x3C }
  - { offsetInCU: 0x6214, offset: 0x6214, size: 0x8, addend: 0x0, symName: __ZNSt3__14swapB8ue170006IPP6BucketIPKcmEEEvRT_S8_, symObjAddr: 0x21C4, symBinAddr: 0x100004828, symSize: 0x3C }
  - { offsetInCU: 0x8929, offset: 0x8929, size: 0x8, addend: 0x0, symName: __Z5Usagev, symObjAddr: 0x0, symBinAddr: 0x100002664, symSize: 0x24 }
  - { offsetInCU: 0x8942, offset: 0x8942, size: 0x8, addend: 0x0, symName: __Z10PrintTop10P9HashTableIPKcmE, symObjAddr: 0x6C, symBinAddr: 0x1000026D0, symSize: 0x164 }
  - { offsetInCU: 0x8A5E, offset: 0x8A5E, size: 0x8, addend: 0x0, symName: __ZN5TimerC1Ev, symObjAddr: 0x1D0, symBinAddr: 0x100002834, symSize: 0x2C }
  - { offsetInCU: 0x8A89, offset: 0x8A89, size: 0x8, addend: 0x0, symName: __ZNSt3__113basic_ostreamIcNS_11char_traitsIcEEElsB8ue170006EPFRS3_S4_E, symObjAddr: 0x1FC, symBinAddr: 0x100002860, symSize: 0x2C }
  - { offsetInCU: 0x8ABC, offset: 0x8ABC, size: 0x8, addend: 0x0, symName: __ZN5Timer5StartEv, symObjAddr: 0x280, symBinAddr: 0x1000028E4, symSize: 0x38 }
  - { offsetInCU: 0x8AE1, offset: 0x8AE1, size: 0x8, addend: 0x0, symName: __ZN5Timer6FinishEv, symObjAddr: 0x2B8, symBinAddr: 0x10000291C, symSize: 0x38 }
  - { offsetInCU: 0x8B06, offset: 0x8B06, size: 0x8, addend: 0x0, symName: __ZN5Timer12PrintElapsedEv, symObjAddr: 0x2F0, symBinAddr: 0x100002954, symSize: 0x78 }
  - { offsetInCU: 0x8B2B, offset: 0x8B2B, size: 0x8, addend: 0x0, symName: _main, symObjAddr: 0x368, symBinAddr: 0x1000029CC, symSize: 0x118 }
  - { offsetInCU: 0x8B7E, offset: 0x8B7E, size: 0x8, addend: 0x0, symName: __ZNSt3__16vectorINS_12basic_stringIcNS_11char_traitsIcEENS_9allocatorIcEEEENS4_IS6_EEEC1B8ue170006Ev, symObjAddr: 0x480, symBinAddr: 0x100002AE4, symSize: 0x2C }
  - { offsetInCU: 0x8EAA, offset: 0x8EAA, size: 0x8, addend: 0x0, symName: __ZN9HashTableIPKcmE8OptimizeEd, symObjAddr: 0x4AC, symBinAddr: 0x100002B10, symSize: 0x1F8 }
  - { offsetInCU: 0x8EFF, offset: 0x8EFF, size: 0x8, addend: 0x0, symName: __ZN9HashTableIPKcmED1Ev, symObjAddr: 0x6A4, symBinAddr: 0x100002D08, symSize: 0x2C }
  - { offsetInCU: 0x8F28, offset: 0x8F28, size: 0x8, addend: 0x0, symName: __ZNSt3__16vectorINS_12basic_stringIcNS_11char_traitsIcEENS_9allocatorIcEEEENS4_IS6_EEED1B8ue170006Ev, symObjAddr: 0x6D0, symBinAddr: 0x100002D34, symSize: 0x2C }
  - { offsetInCU: 0x8F51, offset: 0x8F51, size: 0x8, addend: 0x0, symName: __ZN5TimerC2Ev, symObjAddr: 0x708, symBinAddr: 0x100002D6C, symSize: 0x38 }
  - { offsetInCU: 0x8F7C, offset: 0x8F7C, size: 0x8, addend: 0x0, symName: __ZNSt3__16chrono10time_pointINS0_12steady_clockENS0_8durationIxNS_5ratioILl1ELl1000000000EEEEEEC1B8ue170006Ev, symObjAddr: 0x740, symBinAddr: 0x100002DA4, symSize: 0x2C }
  - { offsetInCU: 0x8FA5, offset: 0x8FA5, size: 0x8, addend: 0x0, symName: __ZNSt3__16chrono10time_pointINS0_12steady_clockENS0_8durationIxNS_5ratioILl1ELl1000000000EEEEEEC2B8ue170006Ev, symObjAddr: 0x76C, symBinAddr: 0x100002DD0, symSize: 0x34 }
  - { offsetInCU: 0x8FCE, offset: 0x8FCE, size: 0x8, addend: 0x0, symName: __ZNSt3__16chrono8durationIxNS_5ratioILl1ELl1000000000EEEE4zeroB8ue170006Ev, symObjAddr: 0x7A0, symBinAddr: 0x100002E04, symSize: 0x50 }
  - { offsetInCU: 0x8FE2, offset: 0x8FE2, size: 0x8, addend: 0x0, symName: __ZNSt3__16chrono15duration_valuesIxE4zeroB8ue170006Ev, symObjAddr: 0x7F0, symBinAddr: 0x100002E54, symSize: 0x8 }
  - { offsetInCU: 0x9005, offset: 0x9005, size: 0x8, addend: 0x0, symName: __ZNSt3__16chrono8durationIxNS_5ratioILl1ELl1000000000EEEEC1B8ue170006IxEERKT_PNS_9enable_ifIXaasr14is_convertibleIS8_xEE5valueooL_ZNS_17integral_constantIbLb0EE5valueEEntsr23treat_as_floating_pointIS6_EE5valueEvE4typeE, symObjAddr: 0x7F8, symBinAddr: 0x100002E5C, symSize: 0x3C }
  - { offsetInCU: 0x9051, offset: 0x9051, size: 0x8, addend: 0x0, symName: __ZNSt3__16chrono8durationIxNS_5ratioILl1ELl1000000000EEEEC2B8ue170006IxEERKT_PNS_9enable_ifIXaasr14is_convertibleIS8_xEE5valueooL_ZNS_17integral_constantIbLb0EE5valueEEntsr23treat_as_floating_pointIS6_EE5valueEvE4typeE, symObjAddr: 0x834, symBinAddr: 0x100002E98, symSize: 0x28 }
  - { offsetInCU: 0x909D, offset: 0x909D, size: 0x8, addend: 0x0, symName: __ZN5Timer7ElapsedEv, symObjAddr: 0x85C, symBinAddr: 0x100002EC0, symSize: 0x3C }
  - { offsetInCU: 0x90C1, offset: 0x90C1, size: 0x8, addend: 0x0, symName: __ZNKSt3__16chrono8durationIxNS_5ratioILl1ELl1000000000EEEE5countB8ue170006Ev, symObjAddr: 0x8F0, symBinAddr: 0x100002F54, symSize: 0x18 }
  - { offsetInCU: 0x90E5, offset: 0x90E5, size: 0x8, addend: 0x0, symName: __ZNKSt3__16chrono10time_pointINS0_12steady_clockENS0_8durationIxNS_5ratioILl1ELl1000000000EEEEEE16time_since_epochB8ue170006Ev, symObjAddr: 0x978, symBinAddr: 0x100002FDC, symSize: 0x20 }
  - { offsetInCU: 0x910A, offset: 0x910A, size: 0x8, addend: 0x0, symName: __ZNSt3__111char_traitsIcE6lengthB8ue170006EPKc, symObjAddr: 0xB8C, symBinAddr: 0x1000031F0, symSize: 0x48 }
  - { offsetInCU: 0x914A, offset: 0x914A, size: 0x8, addend: 0x0, symName: __ZNKSt3__113basic_ostreamIcNS_11char_traitsIcEEE6sentrycvbB8ue170006Ev, symObjAddr: 0xBD4, symBinAddr: 0x100003238, symSize: 0x1C }
  - { offsetInCU: 0x916F, offset: 0x916F, size: 0x8, addend: 0x0, symName: __ZNSt3__119ostreambuf_iteratorIcNS_11char_traitsIcEEEC1B8ue170006ERNS_13basic_ostreamIcS2_EE, symObjAddr: 0xE38, symBinAddr: 0x10000349C, symSize: 0x34 }
  - { offsetInCU: 0x91A6, offset: 0x91A6, size: 0x8, addend: 0x0, symName: __ZNKSt3__18ios_base5flagsB8ue170006Ev, symObjAddr: 0xE6C, symBinAddr: 0x1000034D0, symSize: 0x18 }
  - { offsetInCU: 0x91CD, offset: 0x91CD, size: 0x8, addend: 0x0, symName: __ZNKSt3__19basic_iosIcNS_11char_traitsIcEEE4fillB8ue170006Ev, symObjAddr: 0xE84, symBinAddr: 0x1000034E8, symSize: 0x64 }
  - { offsetInCU: 0x91F3, offset: 0x91F3, size: 0x8, addend: 0x0, symName: __ZNKSt3__119ostreambuf_iteratorIcNS_11char_traitsIcEEE6failedB8ue170006Ev, symObjAddr: 0xEE8, symBinAddr: 0x10000354C, symSize: 0x24 }
  - { offsetInCU: 0x9218, offset: 0x9218, size: 0x8, addend: 0x0, symName: __ZNSt3__19basic_iosIcNS_11char_traitsIcEEE8setstateB8ue170006Ej, symObjAddr: 0xF0C, symBinAddr: 0x100003570, symSize: 0x2C }
  - { offsetInCU: 0x924C, offset: 0x924C, size: 0x8, addend: 0x0, symName: __ZNKSt3__18ios_base5widthB8ue170006Ev, symObjAddr: 0xF38, symBinAddr: 0x10000359C, symSize: 0x18 }
  - { offsetInCU: 0x9273, offset: 0x9273, size: 0x8, addend: 0x0, symName: __ZNSt3__115basic_streambufIcNS_11char_traitsIcEEE5sputnB8ue170006EPKcl, symObjAddr: 0xF50, symBinAddr: 0x1000035B4, symSize: 0x3C }
  - { offsetInCU: 0x92B4, offset: 0x92B4, size: 0x8, addend: 0x0, symName: __ZNSt3__112basic_stringIcNS_11char_traitsIcEENS_9allocatorIcEEEC1B8ue170006Emc, symObjAddr: 0xF8C, symBinAddr: 0x1000035F0, symSize: 0x3C }
  - { offsetInCU: 0x92FB, offset: 0x92FB, size: 0x8, addend: 0x0, symName: __ZNKSt3__112basic_stringIcNS_11char_traitsIcEENS_9allocatorIcEEE4dataB8ue170006Ev, symObjAddr: 0xFC8, symBinAddr: 0x10000362C, symSize: 0x28 }
  - { offsetInCU: 0x9320, offset: 0x9320, size: 0x8, addend: 0x0, symName: __ZNSt3__18ios_base5widthB8ue170006El, symObjAddr: 0xFF0, symBinAddr: 0x100003654, symSize: 0x2C }
  - { offsetInCU: 0x9365, offset: 0x9365, size: 0x8, addend: 0x0, symName: __ZNSt3__112basic_stringIcNS_11char_traitsIcEENS_9allocatorIcEEEC2B8ue170006Emc, symObjAddr: 0x101C, symBinAddr: 0x100003680, symSize: 0x4C }
  - { offsetInCU: 0x93B1, offset: 0x93B1, size: 0x8, addend: 0x0, symName: __ZNSt3__117__compressed_pairINS_12basic_stringIcNS_11char_traitsIcEENS_9allocatorIcEEE5__repES5_EC1B8ue170006INS_18__default_init_tagESA_EEOT_OT0_, symObjAddr: 0x1068, symBinAddr: 0x1000036CC, symSize: 0x3C }
  - { offsetInCU: 0x9408, offset: 0x9408, size: 0x8, addend: 0x0, symName: __ZNSt3__117__compressed_pairINS_12basic_stringIcNS_11char_traitsIcEENS_9allocatorIcEEE5__repES5_EC2B8ue170006INS_18__default_init_tagESA_EEOT_OT0_, symObjAddr: 0x10A4, symBinAddr: 0x100003708, symSize: 0x3C }
  - { offsetInCU: 0x945F, offset: 0x945F, size: 0x8, addend: 0x0, symName: __ZNSt3__122__compressed_pair_elemINS_12basic_stringIcNS_11char_traitsIcEENS_9allocatorIcEEE5__repELi0ELb0EEC2B8ue170006ENS_18__default_init_tagE, symObjAddr: 0x10E0, symBinAddr: 0x100003744, symSize: 0x14 }
  - { offsetInCU: 0x9493, offset: 0x9493, size: 0x8, addend: 0x0, symName: __ZNSt3__122__compressed_pair_elemINS_9allocatorIcEELi1ELb1EEC2B8ue170006ENS_18__default_init_tagE, symObjAddr: 0x10F4, symBinAddr: 0x100003758, symSize: 0x2C }
  - { offsetInCU: 0x94C7, offset: 0x94C7, size: 0x8, addend: 0x0, symName: __ZNSt3__19allocatorIcEC2B8ue170006Ev, symObjAddr: 0x1120, symBinAddr: 0x100003784, symSize: 0x2C }
  - { offsetInCU: 0x94F0, offset: 0x94F0, size: 0x8, addend: 0x0, symName: __ZNSt3__116__non_trivial_ifILb1ENS_9allocatorIcEEEC2B8ue170006Ev, symObjAddr: 0x114C, symBinAddr: 0x1000037B0, symSize: 0x14 }
  - { offsetInCU: 0x9519, offset: 0x9519, size: 0x8, addend: 0x0, symName: __ZNKSt3__112basic_stringIcNS_11char_traitsIcEENS_9allocatorIcEEE13__get_pointerB8ue170006Ev, symObjAddr: 0x1174, symBinAddr: 0x1000037D8, symSize: 0x54 }
  - { offsetInCU: 0x953E, offset: 0x953E, size: 0x8, addend: 0x0, symName: __ZNKSt3__112basic_stringIcNS_11char_traitsIcEENS_9allocatorIcEEE9__is_longB8ue170006Ev, symObjAddr: 0x11C8, symBinAddr: 0x10000382C, symSize: 0x74 }
  - { offsetInCU: 0x9563, offset: 0x9563, size: 0x8, addend: 0x0, symName: __ZNKSt3__112basic_stringIcNS_11char_traitsIcEENS_9allocatorIcEEE18__get_long_pointerB8ue170006Ev, symObjAddr: 0x123C, symBinAddr: 0x1000038A0, symSize: 0x28 }
  - { offsetInCU: 0x9588, offset: 0x9588, size: 0x8, addend: 0x0, symName: __ZNKSt3__112basic_stringIcNS_11char_traitsIcEENS_9allocatorIcEEE19__get_short_pointerB8ue170006Ev, symObjAddr: 0x1264, symBinAddr: 0x1000038C8, symSize: 0x28 }
  - { offsetInCU: 0x95AD, offset: 0x95AD, size: 0x8, addend: 0x0, symName: __ZNKSt3__117__compressed_pairINS_12basic_stringIcNS_11char_traitsIcEENS_9allocatorIcEEE5__repES5_E5firstB8ue170006Ev, symObjAddr: 0x1298, symBinAddr: 0x1000038FC, symSize: 0x24 }
  - { offsetInCU: 0x95D1, offset: 0x95D1, size: 0x8, addend: 0x0, symName: __ZNKSt3__122__compressed_pair_elemINS_12basic_stringIcNS_11char_traitsIcEENS_9allocatorIcEEE5__repELi0ELb0EE5__getB8ue170006Ev, symObjAddr: 0x12BC, symBinAddr: 0x100003920, symSize: 0x14 }
  - { offsetInCU: 0x95F6, offset: 0x95F6, size: 0x8, addend: 0x0, symName: __ZNSt3__114pointer_traitsIPKcE10pointer_toB8ue170006ERS1_, symObjAddr: 0x12D0, symBinAddr: 0x100003934, symSize: 0x14 }
  - { offsetInCU: 0x9619, offset: 0x9619, size: 0x8, addend: 0x0, symName: __ZNSt3__119ostreambuf_iteratorIcNS_11char_traitsIcEEEC2B8ue170006ERNS_13basic_ostreamIcS2_EE, symObjAddr: 0x12E4, symBinAddr: 0x100003948, symSize: 0x68 }
  - { offsetInCU: 0x9650, offset: 0x9650, size: 0x8, addend: 0x0, symName: __ZNKSt3__19basic_iosIcNS_11char_traitsIcEEE5rdbufB8ue170006Ev, symObjAddr: 0x134C, symBinAddr: 0x1000039B0, symSize: 0x24 }
  - { offsetInCU: 0x9676, offset: 0x9676, size: 0x8, addend: 0x0, symName: __ZNKSt3__18ios_base5rdbufB8ue170006Ev, symObjAddr: 0x1370, symBinAddr: 0x1000039D4, symSize: 0x18 }
  - { offsetInCU: 0x969B, offset: 0x969B, size: 0x8, addend: 0x0, symName: __ZNSt3__111char_traitsIcE11eq_int_typeB8ue170006Eii, symObjAddr: 0x1388, symBinAddr: 0x1000039EC, symSize: 0x28 }
  - { offsetInCU: 0x96CE, offset: 0x96CE, size: 0x8, addend: 0x0, symName: __ZNSt3__111char_traitsIcE3eofB8ue170006Ev, symObjAddr: 0x13B0, symBinAddr: 0x100003A14, symSize: 0x8 }
  - { offsetInCU: 0x96E2, offset: 0x96E2, size: 0x8, addend: 0x0, symName: __ZNKSt3__19basic_iosIcNS_11char_traitsIcEEE5widenB8ue170006Ec, symObjAddr: 0x13B8, symBinAddr: 0x100003A1C, symSize: 0x8C }
  - { offsetInCU: 0x974A, offset: 0x974A, size: 0x8, addend: 0x0, symName: __ZNKSt3__15ctypeIcE5widenB8ue170006Ec, symObjAddr: 0x1470, symBinAddr: 0x100003AD4, symSize: 0x38 }
  - { offsetInCU: 0x977E, offset: 0x977E, size: 0x8, addend: 0x0, symName: __ZNSt3__18ios_base8setstateB8ue170006Ej, symObjAddr: 0x14A8, symBinAddr: 0x100003B0C, symSize: 0x34 }
  - { offsetInCU: 0x97B4, offset: 0x97B4, size: 0x8, addend: 0x0, symName: __ZNSt3__16vectorINS_12basic_stringIcNS_11char_traitsIcEENS_9allocatorIcEEEENS4_IS6_EEEC2B8ue170006Ev, symObjAddr: 0x1500, symBinAddr: 0x100003B64, symSize: 0x44 }
  - { offsetInCU: 0x97E2, offset: 0x97E2, size: 0x8, addend: 0x0, symName: __ZNSt3__117__compressed_pairIPNS_12basic_stringIcNS_11char_traitsIcEENS_9allocatorIcEEEENS4_IS6_EEEC1B8ue170006IDnNS_18__default_init_tagEEEOT_OT0_, symObjAddr: 0x1544, symBinAddr: 0x100003BA8, symSize: 0x3C }
  - { offsetInCU: 0x9839, offset: 0x9839, size: 0x8, addend: 0x0, symName: __ZNSt3__117__compressed_pairIPNS_12basic_stringIcNS_11char_traitsIcEENS_9allocatorIcEEEENS4_IS6_EEEC2B8ue170006IDnNS_18__default_init_tagEEEOT_OT0_, symObjAddr: 0x1580, symBinAddr: 0x100003BE4, symSize: 0x40 }
  - { offsetInCU: 0x9890, offset: 0x9890, size: 0x8, addend: 0x0, symName: __ZNSt3__122__compressed_pair_elemIPNS_12basic_stringIcNS_11char_traitsIcEENS_9allocatorIcEEEELi0ELb0EEC2B8ue170006IDnvEEOT_, symObjAddr: 0x15C0, symBinAddr: 0x100003C24, symSize: 0x1C }
  - { offsetInCU: 0x98D1, offset: 0x98D1, size: 0x8, addend: 0x0, symName: __ZNSt3__122__compressed_pair_elemINS_9allocatorINS_12basic_stringIcNS_11char_traitsIcEENS1_IcEEEEEELi1ELb1EEC2B8ue170006ENS_18__default_init_tagE, symObjAddr: 0x15DC, symBinAddr: 0x100003C40, symSize: 0x2C }
  - { offsetInCU: 0x9905, offset: 0x9905, size: 0x8, addend: 0x0, symName: __ZNSt3__19allocatorINS_12basic_stringIcNS_11char_traitsIcEENS0_IcEEEEEC2B8ue170006Ev, symObjAddr: 0x1608, symBinAddr: 0x100003C6C, symSize: 0x2C }
  - { offsetInCU: 0x992E, offset: 0x992E, size: 0x8, addend: 0x0, symName: __ZNSt3__116__non_trivial_ifILb1ENS_9allocatorINS_12basic_stringIcNS_11char_traitsIcEENS1_IcEEEEEEEC2B8ue170006Ev, symObjAddr: 0x1634, symBinAddr: 0x100003C98, symSize: 0x14 }
  - { offsetInCU: 0x9957, offset: 0x9957, size: 0x8, addend: 0x0, symName: __ZNSt3__16vectorINS_12basic_stringIcNS_11char_traitsIcEENS_9allocatorIcEEEENS4_IS6_EEED2B8ue170006Ev, symObjAddr: 0x1648, symBinAddr: 0x100003CAC, symSize: 0x3C }
  - { offsetInCU: 0x9980, offset: 0x9980, size: 0x8, addend: 0x0, symName: __ZNSt3__16vectorINS_12basic_stringIcNS_11char_traitsIcEENS_9allocatorIcEEEENS4_IS6_EEE16__destroy_vectorC1B8ue170006ERS8_, symObjAddr: 0x1684, symBinAddr: 0x100003CE8, symSize: 0x34 }
  - { offsetInCU: 0x99B8, offset: 0x99B8, size: 0x8, addend: 0x0, symName: __ZNSt3__16vectorINS_12basic_stringIcNS_11char_traitsIcEENS_9allocatorIcEEEENS4_IS6_EEE16__destroy_vectorclB8ue170006Ev, symObjAddr: 0x16B8, symBinAddr: 0x100003D1C, symSize: 0x90 }
  - { offsetInCU: 0x99DD, offset: 0x99DD, size: 0x8, addend: 0x0, symName: __ZNSt3__16vectorINS_12basic_stringIcNS_11char_traitsIcEENS_9allocatorIcEEEENS4_IS6_EEE16__destroy_vectorC2B8ue170006ERS8_, symObjAddr: 0x1748, symBinAddr: 0x100003DAC, symSize: 0x20 }
  - { offsetInCU: 0x9A15, offset: 0x9A15, size: 0x8, addend: 0x0, symName: __ZNSt3__16vectorINS_12basic_stringIcNS_11char_traitsIcEENS_9allocatorIcEEEENS4_IS6_EEE7__clearB8ue170006Ev, symObjAddr: 0x1768, symBinAddr: 0x100003DCC, symSize: 0x28 }
  - { offsetInCU: 0x9A3A, offset: 0x9A3A, size: 0x8, addend: 0x0, symName: __ZNKSt3__16vectorINS_12basic_stringIcNS_11char_traitsIcEENS_9allocatorIcEEEENS4_IS6_EEE17__annotate_deleteB8ue170006Ev, symObjAddr: 0x1790, symBinAddr: 0x100003DF4, symSize: 0xD4 }
  - { offsetInCU: 0x9A5F, offset: 0x9A5F, size: 0x8, addend: 0x0, symName: __ZNSt3__116allocator_traitsINS_9allocatorINS_12basic_stringIcNS_11char_traitsIcEENS1_IcEEEEEEE10deallocateB8ue170006ERS7_PS6_m, symObjAddr: 0x1864, symBinAddr: 0x100003EC8, symSize: 0x34 }
  - { offsetInCU: 0x9AA1, offset: 0x9AA1, size: 0x8, addend: 0x0, symName: __ZNSt3__16vectorINS_12basic_stringIcNS_11char_traitsIcEENS_9allocatorIcEEEENS4_IS6_EEE7__allocB8ue170006Ev, symObjAddr: 0x1898, symBinAddr: 0x100003EFC, symSize: 0x28 }
  - { offsetInCU: 0x9AC6, offset: 0x9AC6, size: 0x8, addend: 0x0, symName: __ZNKSt3__16vectorINS_12basic_stringIcNS_11char_traitsIcEENS_9allocatorIcEEEENS4_IS6_EEE8capacityB8ue170006Ev, symObjAddr: 0x18C0, symBinAddr: 0x100003F24, symSize: 0x40 }
  - { offsetInCU: 0x9AEB, offset: 0x9AEB, size: 0x8, addend: 0x0, symName: __ZNSt3__16vectorINS_12basic_stringIcNS_11char_traitsIcEENS_9allocatorIcEEEENS4_IS6_EEE22__base_destruct_at_endB8ue170006EPS6_, symObjAddr: 0x1900, symBinAddr: 0x100003F64, symSize: 0xA0 }
  - { offsetInCU: 0x9B2E, offset: 0x9B2E, size: 0x8, addend: 0x0, symName: __ZNSt3__116allocator_traitsINS_9allocatorINS_12basic_stringIcNS_11char_traitsIcEENS1_IcEEEEEEE7destroyB8ue170006IS6_vEEvRS7_PT_, symObjAddr: 0x19A0, symBinAddr: 0x100004004, symSize: 0x2C }
  - { offsetInCU: 0x9B6B, offset: 0x9B6B, size: 0x8, addend: 0x0, symName: __ZNSt3__19allocatorINS_12basic_stringIcNS_11char_traitsIcEENS0_IcEEEEE7destroyB8ue170006EPS5_, symObjAddr: 0x19E0, symBinAddr: 0x100004044, symSize: 0x28 }
  - { offsetInCU: 0x9B9D, offset: 0x9B9D, size: 0x8, addend: 0x0, symName: __ZNKSt3__16vectorINS_12basic_stringIcNS_11char_traitsIcEENS_9allocatorIcEEEENS4_IS6_EEE31__annotate_contiguous_containerB8ue170006EPKvSA_SA_SA_, symObjAddr: 0x1A08, symBinAddr: 0x10000406C, symSize: 0x20 }
  - { offsetInCU: 0x9BF2, offset: 0x9BF2, size: 0x8, addend: 0x0, symName: __ZNKSt3__16vectorINS_12basic_stringIcNS_11char_traitsIcEENS_9allocatorIcEEEENS4_IS6_EEE4dataB8ue170006Ev, symObjAddr: 0x1A28, symBinAddr: 0x10000408C, symSize: 0x28 }
  - { offsetInCU: 0x9C16, offset: 0x9C16, size: 0x8, addend: 0x0, symName: __ZNKSt3__16vectorINS_12basic_stringIcNS_11char_traitsIcEENS_9allocatorIcEEEENS4_IS6_EEE4sizeB8ue170006Ev, symObjAddr: 0x1A50, symBinAddr: 0x1000040B4, symSize: 0x28 }
  - { offsetInCU: 0x9C3B, offset: 0x9C3B, size: 0x8, addend: 0x0, symName: __ZNSt3__19allocatorINS_12basic_stringIcNS_11char_traitsIcEENS0_IcEEEEE10deallocateB8ue170006EPS5_m, symObjAddr: 0x1A78, symBinAddr: 0x1000040DC, symSize: 0x74 }
  - { offsetInCU: 0x9C7C, offset: 0x9C7C, size: 0x8, addend: 0x0, symName: __ZNSt3__117__compressed_pairIPNS_12basic_stringIcNS_11char_traitsIcEENS_9allocatorIcEEEENS4_IS6_EEE6secondB8ue170006Ev, symObjAddr: 0x1B68, symBinAddr: 0x1000041CC, symSize: 0x24 }
  - { offsetInCU: 0x9CA0, offset: 0x9CA0, size: 0x8, addend: 0x0, symName: __ZNSt3__122__compressed_pair_elemINS_9allocatorINS_12basic_stringIcNS_11char_traitsIcEENS1_IcEEEEEELi1ELb1EE5__getB8ue170006Ev, symObjAddr: 0x1B8C, symBinAddr: 0x1000041F0, symSize: 0x14 }
  - { offsetInCU: 0x9CC5, offset: 0x9CC5, size: 0x8, addend: 0x0, symName: __ZNKSt3__16vectorINS_12basic_stringIcNS_11char_traitsIcEENS_9allocatorIcEEEENS4_IS6_EEE9__end_capB8ue170006Ev, symObjAddr: 0x1BA0, symBinAddr: 0x100004204, symSize: 0x28 }
  - { offsetInCU: 0x9CEA, offset: 0x9CEA, size: 0x8, addend: 0x0, symName: __ZNKSt3__117__compressed_pairIPNS_12basic_stringIcNS_11char_traitsIcEENS_9allocatorIcEEEENS4_IS6_EEE5firstB8ue170006Ev, symObjAddr: 0x1BC8, symBinAddr: 0x10000422C, symSize: 0x24 }
  - { offsetInCU: 0x9D0E, offset: 0x9D0E, size: 0x8, addend: 0x0, symName: __ZNKSt3__122__compressed_pair_elemIPNS_12basic_stringIcNS_11char_traitsIcEENS_9allocatorIcEEEELi0ELb0EE5__getB8ue170006Ev, symObjAddr: 0x1BEC, symBinAddr: 0x100004250, symSize: 0x14 }
  - { offsetInCU: 0x9D33, offset: 0x9D33, size: 0x8, addend: 0x0, symName: __ZN9HashTableIPKcmEC1Em, symObjAddr: 0x1C00, symBinAddr: 0x100004264, symSize: 0x34 }
  - { offsetInCU: 0x9D6A, offset: 0x9D6A, size: 0x8, addend: 0x0, symName: __ZN9HashTableIPKcmE5beginEv, symObjAddr: 0x1C34, symBinAddr: 0x100004298, symSize: 0xD4 }
  - { offsetInCU: 0x9D8F, offset: 0x9D8F, size: 0x8, addend: 0x0, symName: __ZNK9HashTableIPKcmE8IteratorneERKS3_, symObjAddr: 0x1D08, symBinAddr: 0x10000436C, symSize: 0x34 }
  - { offsetInCU: 0x9DC3, offset: 0x9DC3, size: 0x8, addend: 0x0, symName: __ZN9HashTableIPKcmE3endEv, symObjAddr: 0x1D3C, symBinAddr: 0x1000043A0, symSize: 0x40 }
  - { offsetInCU: 0x9DE8, offset: 0x9DE8, size: 0x8, addend: 0x0, symName: __ZN9HashTableIPKcmE8IteratorD1Ev, symObjAddr: 0x1D7C, symBinAddr: 0x1000043E0, symSize: 0x2C }
  - { offsetInCU: 0x9E11, offset: 0x9E11, size: 0x8, addend: 0x0, symName: __ZN9HashTableIPKcmE4FindES1_m, symObjAddr: 0x1DA8, symBinAddr: 0x10000440C, symSize: 0x250 }
  - { offsetInCU: 0x9E7C, offset: 0x9E7C, size: 0x8, addend: 0x0, symName: __ZNK9HashTableIPKcmE8IteratorptEv, symObjAddr: 0x1FF8, symBinAddr: 0x10000465C, symSize: 0x68 }
  - { offsetInCU: 0x9EA0, offset: 0x9EA0, size: 0x8, addend: 0x0, symName: __ZN9HashTableIPKcmE8IteratorppEv, symObjAddr: 0x2060, symBinAddr: 0x1000046C4, symSize: 0x128 }
  - { offsetInCU: 0x9EC5, offset: 0x9EC5, size: 0x8, addend: 0x0, symName: __ZN9HashTableIPKcmEC2Em, symObjAddr: 0x2200, symBinAddr: 0x100004864, symSize: 0x80 }
  - { offsetInCU: 0x9EFC, offset: 0x9EFC, size: 0x8, addend: 0x0, symName: __ZN9HashTableIPKcmE8IteratorC1EPS2_mP6BucketIS1_mE, symObjAddr: 0x2280, symBinAddr: 0x1000048E4, symSize: 0x44 }
  - { offsetInCU: 0x9F4F, offset: 0x9F4F, size: 0x8, addend: 0x0, symName: __ZN9HashTableIPKcmE8IteratorC2EPS2_mP6BucketIS1_mE, symObjAddr: 0x22C4, symBinAddr: 0x100004928, symSize: 0x38 }
  - { offsetInCU: 0x9FA1, offset: 0x9FA1, size: 0x8, addend: 0x0, symName: __ZNK9HashTableIPKcmE8IteratoreqERKS3_, symObjAddr: 0x22FC, symBinAddr: 0x100004960, symSize: 0x90 }
  - { offsetInCU: 0x9FD5, offset: 0x9FD5, size: 0x8, addend: 0x0, symName: __ZN9HashTableIPKcmE8IteratorD2Ev, symObjAddr: 0x238C, symBinAddr: 0x1000049F0, symSize: 0x14 }
  - { offsetInCU: 0x9FFE, offset: 0x9FFE, size: 0x8, addend: 0x0, symName: __ZN6BucketIPKcmEC1ERKS1_mm, symObjAddr: 0x2424, symBinAddr: 0x100004A88, symSize: 0x44 }
  - { offsetInCU: 0xA08C, offset: 0xA08C, size: 0x8, addend: 0x0, symName: __ZNK7EqualsTIPKcEclES1_S1_, symObjAddr: 0x2468, symBinAddr: 0x100004ACC, symSize: 0xC0 }
  - { offsetInCU: 0xA0CD, offset: 0xA0CD, size: 0x8, addend: 0x0, symName: __ZN6BucketIPKcmEC2ERKS1_mm, symObjAddr: 0x2528, symBinAddr: 0x100004B8C, symSize: 0x50 }
  - { offsetInCU: 0xA120, offset: 0xA120, size: 0x8, addend: 0x0, symName: __ZN5TupleIPKcmEC1ERKS1_m, symObjAddr: 0x2578, symBinAddr: 0x100004BDC, symSize: 0x3C }
  - { offsetInCU: 0xA165, offset: 0xA165, size: 0x8, addend: 0x0, symName: __ZN5TupleIPKcmEC2ERKS1_m, symObjAddr: 0x25B4, symBinAddr: 0x100004C18, symSize: 0x30 }
  - { offsetInCU: 0xA1AA, offset: 0xA1AA, size: 0x8, addend: 0x0, symName: __ZN9HashTableIPKcmED2Ev, symObjAddr: 0x25E4, symBinAddr: 0x100004C48, symSize: 0xEC }
  - { offsetInCU: 0xA1E7, offset: 0xA1E7, size: 0x8, addend: 0x0, symName: __ZN6BucketIPKcmED1Ev, symObjAddr: 0x26D0, symBinAddr: 0x100004D34, symSize: 0x2C }
  - { offsetInCU: 0xA210, offset: 0xA210, size: 0x8, addend: 0x0, symName: __ZN6BucketIPKcmED2Ev, symObjAddr: 0x26FC, symBinAddr: 0x100004D60, symSize: 0x80 }
  - { offsetInCU: 0x3812, offset: 0xDB14, size: 0x8, addend: 0x0, symName: __ZNSt3__117__floyd_sift_downB8ue170006INS_17_ClassicAlgPolicyER14PairComparatorNS_11__wrap_iterIPP5TupleIPKcmEEEEET1_SC_OT0_NS_15iterator_traitsISC_E15difference_typeE, symObjAddr: 0x2E8C, symBinAddr: 0x1000077B4, symSize: 0x154 }
  - { offsetInCU: 0x4768, offset: 0xEA6A, size: 0x8, addend: 0x0, symName: __ZNSt3__17reverseB8ue170006IPP5TupleIPKcmEEEvT_S7_, symObjAddr: 0x78C, symBinAddr: 0x10000525C, symSize: 0x2C }
  - { offsetInCU: 0x47A7, offset: 0xEAA9, size: 0x8, addend: 0x0, symName: __ZNSt3__112__to_addressB8ue170006IP5TupleIPKcmEEEPT_S7_, symObjAddr: 0xBA4, symBinAddr: 0x100005674, symSize: 0x14 }
  - { offsetInCU: 0x47DC, offset: 0xEADE, size: 0x8, addend: 0x0, symName: __ZNSt3__19push_heapB8ue170006INS_11__wrap_iterIPP5TupleIPKcmEEE14PairComparatorEEvT_SA_T0_, symObjAddr: 0x10F8, symBinAddr: 0x100005A20, symSize: 0x40 }
  - { offsetInCU: 0x4832, offset: 0xEB34, size: 0x8, addend: 0x0, symName: __ZNSt3__13maxB8ue170006ImEERKT_S3_S3_, symObjAddr: 0x175C, symBinAddr: 0x100006084, symSize: 0x2C }
  - { offsetInCU: 0x4875, offset: 0xEB77, size: 0x8, addend: 0x0, symName: __ZNSt3__13minB8ue170006ImEERKT_S3_S3_, symObjAddr: 0x1788, symBinAddr: 0x1000060B0, symSize: 0x2C }
  - { offsetInCU: 0x4AB9, offset: 0xEDBB, size: 0x8, addend: 0x0, symName: __ZNSt3__13minB8ue170006ImNS_6__lessIvvEEEERKT_S5_S5_T0_, symObjAddr: 0x1814, symBinAddr: 0x10000613C, symSize: 0x54 }
  - { offsetInCU: 0x4B58, offset: 0xEE5A, size: 0x8, addend: 0x0, symName: __ZNSt3__120__throw_length_errorB8ue170006EPKc, symObjAddr: 0x18F0, symBinAddr: 0x100006218, symSize: 0x64 }
  - { offsetInCU: 0x4B83, offset: 0xEE85, size: 0x8, addend: 0x0, symName: __ZNSt3__13maxB8ue170006ImNS_6__lessIvvEEEERKT_S5_S5_T0_, symObjAddr: 0x19D4, symBinAddr: 0x1000062FC, symSize: 0x54 }
  - { offsetInCU: 0x4BDD, offset: 0xEEDF, size: 0x8, addend: 0x0, symName: __ZNSt3__119__allocate_at_leastB8ue170006INS_9allocatorIP5TupleIPKcmEEEEENS_19__allocation_resultINS_16allocator_traitsIT_E7pointerEEERSA_m, symObjAddr: 0x1B38, symBinAddr: 0x100006460, symSize: 0x40 }
  - { offsetInCU: 0x4C20, offset: 0xEF22, size: 0x8, addend: 0x0, symName: __ZNSt3__117__libcpp_allocateB8ue170006Emm, symObjAddr: 0x1CE8, symBinAddr: 0x100006610, symSize: 0x28 }
  - { offsetInCU: 0x4C5D, offset: 0xEF5F, size: 0x8, addend: 0x0, symName: __ZNSt3__121__libcpp_operator_newB8ue170006IJmEEEPvDpT_, symObjAddr: 0x1D10, symBinAddr: 0x100006638, symSize: 0x24 }
  - { offsetInCU: 0x4C96, offset: 0xEF98, size: 0x8, addend: 0x0, symName: __ZNSt3__142__uninitialized_allocator_move_if_noexceptB8ue170006INS_9allocatorIP5TupleIPKcmEEENS_16reverse_iteratorIPS6_EESA_S6_vEET1_RT_T0_SE_SB_, symObjAddr: 0x1D98, symBinAddr: 0x1000066C0, symSize: 0xE8 }
  - { offsetInCU: 0x4D14, offset: 0xF016, size: 0x8, addend: 0x0, symName: __ZNSt3__14swapB8ue170006IPP5TupleIPKcmEEEvRT_S8_, symObjAddr: 0x1ECC, symBinAddr: 0x1000067F4, symSize: 0x3C }
  - { offsetInCU: 0x4D65, offset: 0xF067, size: 0x8, addend: 0x0, symName: __ZNSt3__1neB8ue170006IPP5TupleIPKcmES6_EEbRKNS_16reverse_iteratorIT_EERKNS7_IT0_EE, symObjAddr: 0x1FB4, symBinAddr: 0x1000068DC, symSize: 0x48 }
  - { offsetInCU: 0x4DD8, offset: 0xF0DA, size: 0x8, addend: 0x0, symName: __ZNSt3__114__construct_atB8ue170006IP5TupleIPKcmEJS5_EPS5_EEPT_S8_DpOT0_, symObjAddr: 0x1FFC, symBinAddr: 0x100006924, symSize: 0x2C }
  - { offsetInCU: 0x4E4A, offset: 0xF14C, size: 0x8, addend: 0x0, symName: __ZNSt3__112__to_addressB8ue170006INS_16reverse_iteratorIPP5TupleIPKcmEEEvEEu7__decayIDTclsr19__to_address_helperIT_EE6__callclsr3stdE7declvalIRKS9_EEEEESB_, symObjAddr: 0x2028, symBinAddr: 0x100006950, symSize: 0x24 }
  - { offsetInCU: 0x4E80, offset: 0xF182, size: 0x8, addend: 0x0, symName: __ZNSt3__14moveB8ue170006INS_16reverse_iteratorIPP5TupleIPKcmEEES8_EET0_T_SA_S9_, symObjAddr: 0x2094, symBinAddr: 0x1000069BC, symSize: 0x78 }
  - { offsetInCU: 0x4F04, offset: 0xF206, size: 0x8, addend: 0x0, symName: __ZNSt3__16__moveB8ue170006INS_17_ClassicAlgPolicyENS_16reverse_iteratorIPP5TupleIPKcmEEES9_S9_EENS_4pairIT0_T2_EESB_T1_SC_, symObjAddr: 0x217C, symBinAddr: 0x100006AA4, symSize: 0x64 }
  - { offsetInCU: 0x4F70, offset: 0xF272, size: 0x8, addend: 0x0, symName: __ZNSt3__123__dispatch_copy_or_moveB8ue170006INS_17_ClassicAlgPolicyENS_11__move_loopIS1_EENS_14__move_trivialENS_16reverse_iteratorIPP5TupleIPKcmEEESC_SC_EENS_4pairIT2_T4_EESE_T3_SF_, symObjAddr: 0x21E0, symBinAddr: 0x100006B08, symSize: 0x64 }
  - { offsetInCU: 0x4FEE, offset: 0xF2F0, size: 0x8, addend: 0x0, symName: __ZNSt3__121__unwrap_and_dispatchB8ue170006INS_10__overloadINS_11__move_loopINS_17_ClassicAlgPolicyEEENS_14__move_trivialEEENS_16reverse_iteratorIPP5TupleIPKcmEEESE_SE_Li0EEENS_4pairIT0_T2_EESG_T1_SH_, symObjAddr: 0x2244, symBinAddr: 0x100006B6C, symSize: 0x12C }
  - { offsetInCU: 0x507F, offset: 0xF381, size: 0x8, addend: 0x0, symName: __ZNSt3__114__unwrap_rangeB8ue170006INS_16reverse_iteratorIPP5TupleIPKcmEEES8_EENS_4pairIT0_SA_EET_SC_, symObjAddr: 0x2370, symBinAddr: 0x100006C98, symSize: 0x84 }
  - { offsetInCU: 0x51D3, offset: 0xF4D5, size: 0x8, addend: 0x0, symName: __ZNSt3__113__unwrap_iterB8ue170006INS_16reverse_iteratorIPP5TupleIPKcmEEENS_18__unwrap_iter_implIS8_Lb0EEELi0EEEDTclsrT0_8__unwrapclsr3stdE7declvalIT_EEEESC_, symObjAddr: 0x2494, symBinAddr: 0x100006DBC, symSize: 0x44 }
  - { offsetInCU: 0x5218, offset: 0xF51A, size: 0x8, addend: 0x0, symName: __ZNSt3__19make_pairB8ue170006INS_16reverse_iteratorIPP5TupleIPKcmEEES8_EENS_4pairINS_18__unwrap_ref_decayIT_E4typeENSA_IT0_E4typeEEEOSB_OSE_, symObjAddr: 0x24D8, symBinAddr: 0x100006E00, symSize: 0x38 }
  - { offsetInCU: 0x5267, offset: 0xF569, size: 0x8, addend: 0x0, symName: __ZNSt3__114__rewrap_rangeB8ue170006INS_16reverse_iteratorIPP5TupleIPKcmEEES8_EET_S9_T0_, symObjAddr: 0x2510, symBinAddr: 0x100006E38, symSize: 0x5C }
  - { offsetInCU: 0x52B3, offset: 0xF5B5, size: 0x8, addend: 0x0, symName: __ZNSt3__113__rewrap_iterB8ue170006INS_16reverse_iteratorIPP5TupleIPKcmEEES8_NS_18__unwrap_iter_implIS8_Lb0EEEEET_SB_T0_, symObjAddr: 0x256C, symBinAddr: 0x100006E94, symSize: 0x88 }
  - { offsetInCU: 0x5416, offset: 0xF718, size: 0x8, addend: 0x0, symName: __ZNSt3__111__push_heapB8ue170006INS_17_ClassicAlgPolicyENS_11__wrap_iterIPP5TupleIPKcmEEE14PairComparatorEEvT0_SB_RT1_, symObjAddr: 0x28FC, symBinAddr: 0x100007224, symSize: 0x5C }
  - { offsetInCU: 0x5483, offset: 0xF785, size: 0x8, addend: 0x0, symName: __ZNSt3__1miB8ue170006IPP5TupleIPKcmES6_EENS_11__wrap_iterIT_E15difference_typeERKS9_RKNS7_IT0_EE, symObjAddr: 0x2958, symBinAddr: 0x100007280, symSize: 0x48 }
  - { offsetInCU: 0x54CF, offset: 0xF7D1, size: 0x8, addend: 0x0, symName: __ZNSt3__19__sift_upB8ue170006INS_17_ClassicAlgPolicyER14PairComparatorNS_11__wrap_iterIPP5TupleIPKcmEEEEEvT1_SC_OT0_NS_15iterator_traitsISC_E15difference_typeE, symObjAddr: 0x29A0, symBinAddr: 0x1000072C8, symSize: 0x174 }
  - { offsetInCU: 0x5581, offset: 0xF883, size: 0x8, addend: 0x0, symName: __ZNSt3__18pop_heapB8ue170006INS_11__wrap_iterIPP5TupleIPKcmEEE14PairComparatorEEvT_SA_T0_, symObjAddr: 0x2CC4, symBinAddr: 0x1000075EC, symSize: 0x58 }
  - { offsetInCU: 0x55E5, offset: 0xF8E7, size: 0x8, addend: 0x0, symName: __ZNSt3__110__pop_heapB8ue170006INS_17_ClassicAlgPolicyE14PairComparatorNS_11__wrap_iterIPP5TupleIPKcmEEEEEvT1_SB_RT0_NS_15iterator_traitsISB_E15difference_typeE, symObjAddr: 0x2D48, symBinAddr: 0x100007670, symSize: 0x144 }
  - { offsetInCU: 0x5696, offset: 0xF998, size: 0x8, addend: 0x0, symName: __ZNSt3__1eqB8ue170006IPP5TupleIPKcmEEEbRKNS_11__wrap_iterIT_EESB_, symObjAddr: 0x2FE0, symBinAddr: 0x100007908, symSize: 0x48 }
  - { offsetInCU: 0x56D9, offset: 0xF9DB, size: 0x8, addend: 0x0, symName: __ZNSt3__19__reverseB8ue170006INS_17_ClassicAlgPolicyEPP5TupleIPKcmES7_EEvT0_T1_, symObjAddr: 0x3170, symBinAddr: 0x100007A98, symSize: 0x2C }
  - { offsetInCU: 0x572A, offset: 0xFA2C, size: 0x8, addend: 0x0, symName: __ZNSt3__114__reverse_implB8ue170006INS_17_ClassicAlgPolicyEPP5TupleIPKcmEEEvT0_S8_NS_26random_access_iterator_tagE, symObjAddr: 0x319C, symBinAddr: 0x100007AC4, symSize: 0x80 }
  - { offsetInCU: 0x577D, offset: 0xFA7F, size: 0x8, addend: 0x0, symName: __ZNSt3__19iter_swapB8ue170006IPP5TupleIPKcmES6_EEvT_T0_, symObjAddr: 0x3250, symBinAddr: 0x100007B78, symSize: 0x2C }
  - { offsetInCU: 0x57C5, offset: 0xFAC7, size: 0x8, addend: 0x0, symName: __ZNSt3__14swapB8ue170006IP5TupleIPKcmEEEvRT_S7_, symObjAddr: 0x327C, symBinAddr: 0x100007BA4, symSize: 0x3C }
  - { offsetInCU: 0x5A13, offset: 0xFD15, size: 0x8, addend: 0x0, symName: __ZSt28__throw_bad_array_new_lengthB8ue170006v, symObjAddr: 0x1CB4, symBinAddr: 0x1000065DC, symSize: 0x34 }
  - { offsetInCU: 0x5D39, offset: 0x1003B, size: 0x8, addend: 0x0, symName: __ZNSt3__16vectorIP5TupleIPKcmENS_9allocatorIS5_EEE26__swap_out_circular_bufferERNS_14__split_bufferIS5_RS7_EE, symObjAddr: 0x1590, symBinAddr: 0x100005EB8, symSize: 0x110 }
  - { offsetInCU: 0x7B3C, offset: 0x11E3E, size: 0x8, addend: 0x0, symName: __Z4TopNP9HashTableIPKcmEi, symObjAddr: 0x0, symBinAddr: 0x100004DE0, symSize: 0x2D0 }
  - { offsetInCU: 0x7C40, offset: 0x11F42, size: 0x8, addend: 0x0, symName: __ZNSt3__114priority_queueIP5TupleIPKcmENS_6vectorIS5_NS_9allocatorIS5_EEEE14PairComparatorEC1B8ue170006Ev, symObjAddr: 0x2D0, symBinAddr: 0x1000050B0, symSize: 0x2C }
  - { offsetInCU: 0x7C6A, offset: 0x11F6C, size: 0x8, addend: 0x0, symName: __ZNKSt3__114priority_queueIP5TupleIPKcmENS_6vectorIS5_NS_9allocatorIS5_EEEE14PairComparatorE4sizeB8ue170006Ev, symObjAddr: 0x444, symBinAddr: 0x1000050DC, symSize: 0x24 }
  - { offsetInCU: 0x7C8E, offset: 0x11F90, size: 0x8, addend: 0x0, symName: __ZNSt3__114priority_queueIP5TupleIPKcmENS_6vectorIS5_NS_9allocatorIS5_EEEE14PairComparatorE4pushERKS5_, symObjAddr: 0x468, symBinAddr: 0x100005100, symSize: 0x58 }
  - { offsetInCU: 0x7CC5, offset: 0x11FC7, size: 0x8, addend: 0x0, symName: __ZN9HashTableIPKcmE8IteratordeEv, symObjAddr: 0x4C0, symBinAddr: 0x100005158, symSize: 0x68 }
  - { offsetInCU: 0x7CEA, offset: 0x11FEC, size: 0x8, addend: 0x0, symName: __ZNKSt3__114priority_queueIP5TupleIPKcmENS_6vectorIS5_NS_9allocatorIS5_EEEE14PairComparatorE3topB8ue170006Ev, symObjAddr: 0x590, symBinAddr: 0x1000051C0, symSize: 0x24 }
  - { offsetInCU: 0x7D0E, offset: 0x12010, size: 0x8, addend: 0x0, symName: __ZNSt3__114priority_queueIP5TupleIPKcmENS_6vectorIS5_NS_9allocatorIS5_EEEE14PairComparatorE3popEv, symObjAddr: 0x5B4, symBinAddr: 0x1000051E4, symSize: 0x50 }
  - { offsetInCU: 0x7D36, offset: 0x12038, size: 0x8, addend: 0x0, symName: __ZNKSt3__114priority_queueIP5TupleIPKcmENS_6vectorIS5_NS_9allocatorIS5_EEEE14PairComparatorE5emptyB8ue170006Ev, symObjAddr: 0x764, symBinAddr: 0x100005234, symSize: 0x28 }
  - { offsetInCU: 0x7D5B, offset: 0x1205D, size: 0x8, addend: 0x0, symName: __ZNSt3__114priority_queueIP5TupleIPKcmENS_6vectorIS5_NS_9allocatorIS5_EEEE14PairComparatorED1Ev, symObjAddr: 0x7B8, symBinAddr: 0x100005288, symSize: 0x2C }
  - { offsetInCU: 0x7D87, offset: 0x12089, size: 0x8, addend: 0x0, symName: __ZNSt3__114priority_queueIP5TupleIPKcmENS_6vectorIS5_NS_9allocatorIS5_EEEE14PairComparatorED2Ev, symObjAddr: 0x7E4, symBinAddr: 0x1000052B4, symSize: 0x2C }
  - { offsetInCU: 0x7DB2, offset: 0x120B4, size: 0x8, addend: 0x0, symName: __ZNSt3__16vectorIP5TupleIPKcmENS_9allocatorIS5_EEED1B8ue170006Ev, symObjAddr: 0x810, symBinAddr: 0x1000052E0, symSize: 0x2C }
  - { offsetInCU: 0x7DDB, offset: 0x120DD, size: 0x8, addend: 0x0, symName: __ZNSt3__16vectorIP5TupleIPKcmENS_9allocatorIS5_EEED2B8ue170006Ev, symObjAddr: 0x83C, symBinAddr: 0x10000530C, symSize: 0x3C }
  - { offsetInCU: 0x7E04, offset: 0x12106, size: 0x8, addend: 0x0, symName: __ZNSt3__16vectorIP5TupleIPKcmENS_9allocatorIS5_EEE16__destroy_vectorC1B8ue170006ERS8_, symObjAddr: 0x878, symBinAddr: 0x100005348, symSize: 0x34 }
  - { offsetInCU: 0x7E3D, offset: 0x1213F, size: 0x8, addend: 0x0, symName: __ZNSt3__16vectorIP5TupleIPKcmENS_9allocatorIS5_EEE16__destroy_vectorclB8ue170006Ev, symObjAddr: 0x8AC, symBinAddr: 0x10000537C, symSize: 0x90 }
  - { offsetInCU: 0x7E62, offset: 0x12164, size: 0x8, addend: 0x0, symName: __ZNSt3__16vectorIP5TupleIPKcmENS_9allocatorIS5_EEE16__destroy_vectorC2B8ue170006ERS8_, symObjAddr: 0x93C, symBinAddr: 0x10000540C, symSize: 0x20 }
  - { offsetInCU: 0x7E9A, offset: 0x1219C, size: 0x8, addend: 0x0, symName: __ZNSt3__16vectorIP5TupleIPKcmENS_9allocatorIS5_EEE7__clearB8ue170006Ev, symObjAddr: 0x95C, symBinAddr: 0x10000542C, symSize: 0x28 }
  - { offsetInCU: 0x7EBF, offset: 0x121C1, size: 0x8, addend: 0x0, symName: __ZNKSt3__16vectorIP5TupleIPKcmENS_9allocatorIS5_EEE17__annotate_deleteB8ue170006Ev, symObjAddr: 0x984, symBinAddr: 0x100005454, symSize: 0xB8 }
  - { offsetInCU: 0x7EE4, offset: 0x121E6, size: 0x8, addend: 0x0, symName: __ZNSt3__116allocator_traitsINS_9allocatorIP5TupleIPKcmEEEE10deallocateB8ue170006ERS7_PS6_m, symObjAddr: 0xA3C, symBinAddr: 0x10000550C, symSize: 0x34 }
  - { offsetInCU: 0x7F26, offset: 0x12228, size: 0x8, addend: 0x0, symName: __ZNSt3__16vectorIP5TupleIPKcmENS_9allocatorIS5_EEE7__allocB8ue170006Ev, symObjAddr: 0xA70, symBinAddr: 0x100005540, symSize: 0x28 }
  - { offsetInCU: 0x7F4B, offset: 0x1224D, size: 0x8, addend: 0x0, symName: __ZNKSt3__16vectorIP5TupleIPKcmENS_9allocatorIS5_EEE8capacityB8ue170006Ev, symObjAddr: 0xA98, symBinAddr: 0x100005568, symSize: 0x40 }
  - { offsetInCU: 0x7F70, offset: 0x12272, size: 0x8, addend: 0x0, symName: __ZNSt3__16vectorIP5TupleIPKcmENS_9allocatorIS5_EEE22__base_destruct_at_endB8ue170006EPS5_, symObjAddr: 0xAD8, symBinAddr: 0x1000055A8, symSize: 0xA0 }
  - { offsetInCU: 0x7FB3, offset: 0x122B5, size: 0x8, addend: 0x0, symName: __ZNSt3__116allocator_traitsINS_9allocatorIP5TupleIPKcmEEEE7destroyB8ue170006IS6_vEEvRS7_PT_, symObjAddr: 0xB78, symBinAddr: 0x100005648, symSize: 0x2C }
  - { offsetInCU: 0x7FF0, offset: 0x122F2, size: 0x8, addend: 0x0, symName: __ZNSt3__19allocatorIP5TupleIPKcmEE7destroyB8ue170006EPS5_, symObjAddr: 0xBB8, symBinAddr: 0x100005688, symSize: 0x14 }
  - { offsetInCU: 0x8022, offset: 0x12324, size: 0x8, addend: 0x0, symName: __ZNKSt3__16vectorIP5TupleIPKcmENS_9allocatorIS5_EEE31__annotate_contiguous_containerB8ue170006EPKvSA_SA_SA_, symObjAddr: 0xBCC, symBinAddr: 0x10000569C, symSize: 0x20 }
  - { offsetInCU: 0x8076, offset: 0x12378, size: 0x8, addend: 0x0, symName: __ZNKSt3__16vectorIP5TupleIPKcmENS_9allocatorIS5_EEE4dataB8ue170006Ev, symObjAddr: 0xBEC, symBinAddr: 0x1000056BC, symSize: 0x28 }
  - { offsetInCU: 0x809B, offset: 0x1239D, size: 0x8, addend: 0x0, symName: __ZNKSt3__16vectorIP5TupleIPKcmENS_9allocatorIS5_EEE4sizeB8ue170006Ev, symObjAddr: 0xC14, symBinAddr: 0x1000056E4, symSize: 0x28 }
  - { offsetInCU: 0x80BF, offset: 0x123C1, size: 0x8, addend: 0x0, symName: __ZNSt3__19allocatorIP5TupleIPKcmEE10deallocateB8ue170006EPS5_m, symObjAddr: 0xC3C, symBinAddr: 0x10000570C, symSize: 0x70 }
  - { offsetInCU: 0x8100, offset: 0x12402, size: 0x8, addend: 0x0, symName: __ZNSt3__117__compressed_pairIPP5TupleIPKcmENS_9allocatorIS5_EEE6secondB8ue170006Ev, symObjAddr: 0xD34, symBinAddr: 0x10000577C, symSize: 0x24 }
  - { offsetInCU: 0x8125, offset: 0x12427, size: 0x8, addend: 0x0, symName: __ZNSt3__122__compressed_pair_elemINS_9allocatorIP5TupleIPKcmEEELi1ELb1EE5__getB8ue170006Ev, symObjAddr: 0xD58, symBinAddr: 0x1000057A0, symSize: 0x14 }
  - { offsetInCU: 0x8149, offset: 0x1244B, size: 0x8, addend: 0x0, symName: __ZNKSt3__16vectorIP5TupleIPKcmENS_9allocatorIS5_EEE9__end_capB8ue170006Ev, symObjAddr: 0xD6C, symBinAddr: 0x1000057B4, symSize: 0x28 }
  - { offsetInCU: 0x816E, offset: 0x12470, size: 0x8, addend: 0x0, symName: __ZNKSt3__117__compressed_pairIPP5TupleIPKcmENS_9allocatorIS5_EEE5firstB8ue170006Ev, symObjAddr: 0xD94, symBinAddr: 0x1000057DC, symSize: 0x24 }
  - { offsetInCU: 0x8193, offset: 0x12495, size: 0x8, addend: 0x0, symName: __ZNKSt3__122__compressed_pair_elemIPP5TupleIPKcmELi0ELb0EE5__getB8ue170006Ev, symObjAddr: 0xDB8, symBinAddr: 0x100005800, symSize: 0x14 }
  - { offsetInCU: 0x81B6, offset: 0x124B8, size: 0x8, addend: 0x0, symName: __ZNSt3__114priority_queueIP5TupleIPKcmENS_6vectorIS5_NS_9allocatorIS5_EEEE14PairComparatorEC2B8ue170006Ev, symObjAddr: 0xDCC, symBinAddr: 0x100005814, symSize: 0x2C }
  - { offsetInCU: 0x81DF, offset: 0x124E1, size: 0x8, addend: 0x0, symName: __ZNSt3__16vectorIP5TupleIPKcmENS_9allocatorIS5_EEEC1B8ue170006Ev, symObjAddr: 0xDF8, symBinAddr: 0x100005840, symSize: 0x2C }
  - { offsetInCU: 0x8208, offset: 0x1250A, size: 0x8, addend: 0x0, symName: __ZNSt3__16vectorIP5TupleIPKcmENS_9allocatorIS5_EEEC2B8ue170006Ev, symObjAddr: 0xE24, symBinAddr: 0x10000586C, symSize: 0x44 }
  - { offsetInCU: 0x823B, offset: 0x1253D, size: 0x8, addend: 0x0, symName: __ZNSt3__117__compressed_pairIPP5TupleIPKcmENS_9allocatorIS5_EEEC1B8ue170006IDnNS_18__default_init_tagEEEOT_OT0_, symObjAddr: 0xE68, symBinAddr: 0x1000058B0, symSize: 0x3C }
  - { offsetInCU: 0x8292, offset: 0x12594, size: 0x8, addend: 0x0, symName: __ZNSt3__117__compressed_pairIPP5TupleIPKcmENS_9allocatorIS5_EEEC2B8ue170006IDnNS_18__default_init_tagEEEOT_OT0_, symObjAddr: 0xEA4, symBinAddr: 0x1000058EC, symSize: 0x40 }
  - { offsetInCU: 0x82EA, offset: 0x125EC, size: 0x8, addend: 0x0, symName: __ZNSt3__122__compressed_pair_elemIPP5TupleIPKcmELi0ELb0EEC2B8ue170006IDnvEEOT_, symObjAddr: 0xEE4, symBinAddr: 0x10000592C, symSize: 0x1C }
  - { offsetInCU: 0x832A, offset: 0x1262C, size: 0x8, addend: 0x0, symName: __ZNSt3__122__compressed_pair_elemINS_9allocatorIP5TupleIPKcmEEELi1ELb1EEC2B8ue170006ENS_18__default_init_tagE, symObjAddr: 0xF00, symBinAddr: 0x100005948, symSize: 0x2C }
  - { offsetInCU: 0x835E, offset: 0x12660, size: 0x8, addend: 0x0, symName: __ZNSt3__19allocatorIP5TupleIPKcmEEC2B8ue170006Ev, symObjAddr: 0xF2C, symBinAddr: 0x100005974, symSize: 0x2C }
  - { offsetInCU: 0x8388, offset: 0x1268A, size: 0x8, addend: 0x0, symName: __ZNSt3__116__non_trivial_ifILb1ENS_9allocatorIP5TupleIPKcmEEEEC2B8ue170006Ev, symObjAddr: 0xF58, symBinAddr: 0x1000059A0, symSize: 0x14 }
  - { offsetInCU: 0x83B0, offset: 0x126B2, size: 0x8, addend: 0x0, symName: __ZNSt3__16vectorIP5TupleIPKcmENS_9allocatorIS5_EEE9push_backB8ue170006ERKS5_, symObjAddr: 0x108C, symBinAddr: 0x1000059B4, symSize: 0x6C }
  - { offsetInCU: 0x83E6, offset: 0x126E8, size: 0x8, addend: 0x0, symName: __ZNSt3__16vectorIP5TupleIPKcmENS_9allocatorIS5_EEE5beginB8ue170006Ev, symObjAddr: 0x1138, symBinAddr: 0x100005A60, symSize: 0x30 }
  - { offsetInCU: 0x840D, offset: 0x1270F, size: 0x8, addend: 0x0, symName: __ZNSt3__16vectorIP5TupleIPKcmENS_9allocatorIS5_EEE3endB8ue170006Ev, symObjAddr: 0x1168, symBinAddr: 0x100005A90, symSize: 0x30 }
  - { offsetInCU: 0x8435, offset: 0x12737, size: 0x8, addend: 0x0, symName: __ZNSt3__16vectorIP5TupleIPKcmENS_9allocatorIS5_EEE9__end_capB8ue170006Ev, symObjAddr: 0x1198, symBinAddr: 0x100005AC0, symSize: 0x28 }
  - { offsetInCU: 0x845A, offset: 0x1275C, size: 0x8, addend: 0x0, symName: __ZNSt3__16vectorIP5TupleIPKcmENS_9allocatorIS5_EEE22__construct_one_at_endB8ue170006IJRKS5_EEEvDpOT_, symObjAddr: 0x11C0, symBinAddr: 0x100005AE8, symSize: 0x98 }
  - { offsetInCU: 0x84A7, offset: 0x127A9, size: 0x8, addend: 0x0, symName: __ZNSt3__16vectorIP5TupleIPKcmENS_9allocatorIS5_EEE21__push_back_slow_pathIRKS5_EEvOT_, symObjAddr: 0x1258, symBinAddr: 0x100005B80, symSize: 0xE0 }
  - { offsetInCU: 0x8505, offset: 0x12807, size: 0x8, addend: 0x0, symName: __ZNSt3__117__compressed_pairIPP5TupleIPKcmENS_9allocatorIS5_EEE5firstB8ue170006Ev, symObjAddr: 0x1338, symBinAddr: 0x100005C60, symSize: 0x24 }
  - { offsetInCU: 0x852A, offset: 0x1282C, size: 0x8, addend: 0x0, symName: __ZNSt3__122__compressed_pair_elemIPP5TupleIPKcmELi0ELb0EE5__getB8ue170006Ev, symObjAddr: 0x135C, symBinAddr: 0x100005C84, symSize: 0x14 }
  - { offsetInCU: 0x8566, offset: 0x12868, size: 0x8, addend: 0x0, symName: __ZNSt3__16vectorIP5TupleIPKcmENS_9allocatorIS5_EEE21_ConstructTransactionC1B8ue170006ERS8_m, symObjAddr: 0x1370, symBinAddr: 0x100005C98, symSize: 0x3C }
  - { offsetInCU: 0x85AE, offset: 0x128B0, size: 0x8, addend: 0x0, symName: __ZNSt3__116allocator_traitsINS_9allocatorIP5TupleIPKcmEEEE9constructB8ue170006IS6_JRKS6_EvEEvRS7_PT_DpOT0_, symObjAddr: 0x13AC, symBinAddr: 0x100005CD4, symSize: 0x34 }
  - { offsetInCU: 0x8604, offset: 0x12906, size: 0x8, addend: 0x0, symName: __ZNSt3__16vectorIP5TupleIPKcmENS_9allocatorIS5_EEE21_ConstructTransactionD1B8ue170006Ev, symObjAddr: 0x13E0, symBinAddr: 0x100005D08, symSize: 0x2C }
  - { offsetInCU: 0x862E, offset: 0x12930, size: 0x8, addend: 0x0, symName: __ZNSt3__16vectorIP5TupleIPKcmENS_9allocatorIS5_EEE21_ConstructTransactionC2B8ue170006ERS8_m, symObjAddr: 0x140C, symBinAddr: 0x100005D34, symSize: 0x44 }
  - { offsetInCU: 0x8675, offset: 0x12977, size: 0x8, addend: 0x0, symName: __ZNSt3__19allocatorIP5TupleIPKcmEE9constructB8ue170006IS5_JRKS5_EEEvPT_DpOT0_, symObjAddr: 0x1450, symBinAddr: 0x100005D78, symSize: 0x28 }
  - { offsetInCU: 0x86C9, offset: 0x129CB, size: 0x8, addend: 0x0, symName: __ZNSt3__16vectorIP5TupleIPKcmENS_9allocatorIS5_EEE21_ConstructTransactionD2B8ue170006Ev, symObjAddr: 0x1478, symBinAddr: 0x100005DA0, symSize: 0x20 }
  - { offsetInCU: 0x86F1, offset: 0x129F3, size: 0x8, addend: 0x0, symName: __ZNKSt3__16vectorIP5TupleIPKcmENS_9allocatorIS5_EEE11__recommendB8ue170006Em, symObjAddr: 0x1498, symBinAddr: 0x100005DC0, symSize: 0xB4 }
  - { offsetInCU: 0x8746, offset: 0x12A48, size: 0x8, addend: 0x0, symName: __ZNSt3__114__split_bufferIP5TupleIPKcmERNS_9allocatorIS5_EEEC1EmmS8_, symObjAddr: 0x154C, symBinAddr: 0x100005E74, symSize: 0x44 }
  - { offsetInCU: 0x879B, offset: 0x12A9D, size: 0x8, addend: 0x0, symName: __ZNSt3__114__split_bufferIP5TupleIPKcmERNS_9allocatorIS5_EEED1Ev, symObjAddr: 0x16A0, symBinAddr: 0x100005FC8, symSize: 0x2C }
  - { offsetInCU: 0x87C5, offset: 0x12AC7, size: 0x8, addend: 0x0, symName: __ZNKSt3__16vectorIP5TupleIPKcmENS_9allocatorIS5_EEE8max_sizeEv, symObjAddr: 0x16CC, symBinAddr: 0x100005FF4, symSize: 0x74 }
  - { offsetInCU: 0x87ED, offset: 0x12AEF, size: 0x8, addend: 0x0, symName: __ZNKSt3__16vectorIP5TupleIPKcmENS_9allocatorIS5_EEE20__throw_length_errorB8ue170006Ev, symObjAddr: 0x1740, symBinAddr: 0x100006068, symSize: 0x1C }
  - { offsetInCU: 0x881C, offset: 0x12B1E, size: 0x8, addend: 0x0, symName: __ZNSt3__116allocator_traitsINS_9allocatorIP5TupleIPKcmEEEE8max_sizeB8ue170006IS7_vEEmRKS7_, symObjAddr: 0x17B4, symBinAddr: 0x1000060DC, symSize: 0x24 }
  - { offsetInCU: 0x884A, offset: 0x12B4C, size: 0x8, addend: 0x0, symName: __ZNKSt3__16vectorIP5TupleIPKcmENS_9allocatorIS5_EEE7__allocB8ue170006Ev, symObjAddr: 0x17D8, symBinAddr: 0x100006100, symSize: 0x28 }
  - { offsetInCU: 0x886F, offset: 0x12B71, size: 0x8, addend: 0x0, symName: __ZNSt3__114numeric_limitsIlE3maxB8ue170006Ev, symObjAddr: 0x1800, symBinAddr: 0x100006128, symSize: 0x14 }
  - { offsetInCU: 0x8892, offset: 0x12B94, size: 0x8, addend: 0x0, symName: __ZNKSt3__16__lessIvvEclB8ue170006ImmEEbRKT_RKT0_, symObjAddr: 0x1868, symBinAddr: 0x100006190, symSize: 0x34 }
  - { offsetInCU: 0x88E4, offset: 0x12BE6, size: 0x8, addend: 0x0, symName: __ZNKSt3__19allocatorIP5TupleIPKcmEE8max_sizeB8ue170006Ev, symObjAddr: 0x189C, symBinAddr: 0x1000061C4, symSize: 0x14 }
  - { offsetInCU: 0x8908, offset: 0x12C0A, size: 0x8, addend: 0x0, symName: __ZNKSt3__117__compressed_pairIPP5TupleIPKcmENS_9allocatorIS5_EEE6secondB8ue170006Ev, symObjAddr: 0x18B0, symBinAddr: 0x1000061D8, symSize: 0x24 }
  - { offsetInCU: 0x892D, offset: 0x12C2F, size: 0x8, addend: 0x0, symName: __ZNKSt3__122__compressed_pair_elemINS_9allocatorIP5TupleIPKcmEEELi1ELb1EE5__getB8ue170006Ev, symObjAddr: 0x18D4, symBinAddr: 0x1000061FC, symSize: 0x14 }
  - { offsetInCU: 0x8951, offset: 0x12C53, size: 0x8, addend: 0x0, symName: __ZNSt3__123__libcpp_numeric_limitsIlLb1EE3maxB8ue170006Ev, symObjAddr: 0x18E8, symBinAddr: 0x100006210, symSize: 0x8 }
  - { offsetInCU: 0x8964, offset: 0x12C66, size: 0x8, addend: 0x0, symName: __ZNSt12length_errorC1B8ue170006EPKc, symObjAddr: 0x1954, symBinAddr: 0x10000627C, symSize: 0x34 }
  - { offsetInCU: 0x899B, offset: 0x12C9D, size: 0x8, addend: 0x0, symName: __ZNSt12length_errorC2B8ue170006EPKc, symObjAddr: 0x1988, symBinAddr: 0x1000062B0, symSize: 0x4C }
  - { offsetInCU: 0x89D3, offset: 0x12CD5, size: 0x8, addend: 0x0, symName: __ZNSt3__114__split_bufferIP5TupleIPKcmERNS_9allocatorIS5_EEEC2EmmS8_, symObjAddr: 0x1A28, symBinAddr: 0x100006350, symSize: 0xD4 }
  - { offsetInCU: 0x8A45, offset: 0x12D47, size: 0x8, addend: 0x0, symName: __ZNSt3__117__compressed_pairIPP5TupleIPKcmERNS_9allocatorIS5_EEEC1B8ue170006IDnS9_EEOT_OT0_, symObjAddr: 0x1AFC, symBinAddr: 0x100006424, symSize: 0x3C }
  - { offsetInCU: 0x8A9D, offset: 0x12D9F, size: 0x8, addend: 0x0, symName: __ZNSt3__114__split_bufferIP5TupleIPKcmERNS_9allocatorIS5_EEE7__allocB8ue170006Ev, symObjAddr: 0x1B78, symBinAddr: 0x1000064A0, symSize: 0x28 }
  - { offsetInCU: 0x8AC2, offset: 0x12DC4, size: 0x8, addend: 0x0, symName: __ZNSt3__114__split_bufferIP5TupleIPKcmERNS_9allocatorIS5_EEE9__end_capB8ue170006Ev, symObjAddr: 0x1BA0, symBinAddr: 0x1000064C8, symSize: 0x28 }
  - { offsetInCU: 0x8AE6, offset: 0x12DE8, size: 0x8, addend: 0x0, symName: __ZNSt3__117__compressed_pairIPP5TupleIPKcmERNS_9allocatorIS5_EEEC2B8ue170006IDnS9_EEOT_OT0_, symObjAddr: 0x1BC8, symBinAddr: 0x1000064F0, symSize: 0x48 }
  - { offsetInCU: 0x8B3E, offset: 0x12E40, size: 0x8, addend: 0x0, symName: __ZNSt3__122__compressed_pair_elemIRNS_9allocatorIP5TupleIPKcmEEELi1ELb0EEC2B8ue170006IS8_vEEOT_, symObjAddr: 0x1C10, symBinAddr: 0x100006538, symSize: 0x20 }
  - { offsetInCU: 0x8B7F, offset: 0x12E81, size: 0x8, addend: 0x0, symName: __ZNSt3__19allocatorIP5TupleIPKcmEE8allocateB8ue170006Em, symObjAddr: 0x1C30, symBinAddr: 0x100006558, symSize: 0x84 }
  - { offsetInCU: 0x8BB2, offset: 0x12EB4, size: 0x8, addend: 0x0, symName: __ZNSt3__117__compressed_pairIPP5TupleIPKcmERNS_9allocatorIS5_EEE6secondB8ue170006Ev, symObjAddr: 0x1D34, symBinAddr: 0x10000665C, symSize: 0x28 }
  - { offsetInCU: 0x8BD7, offset: 0x12ED9, size: 0x8, addend: 0x0, symName: __ZNSt3__122__compressed_pair_elemIRNS_9allocatorIP5TupleIPKcmEEELi1ELb0EE5__getB8ue170006Ev, symObjAddr: 0x1D5C, symBinAddr: 0x100006684, symSize: 0x18 }
  - { offsetInCU: 0x8BFB, offset: 0x12EFD, size: 0x8, addend: 0x0, symName: __ZNSt3__117__compressed_pairIPP5TupleIPKcmERNS_9allocatorIS5_EEE5firstB8ue170006Ev, symObjAddr: 0x1D74, symBinAddr: 0x10000669C, symSize: 0x24 }
  - { offsetInCU: 0x8C1F, offset: 0x12F21, size: 0x8, addend: 0x0, symName: __ZNSt3__116reverse_iteratorIPP5TupleIPKcmEEC1B8ue170006ES6_, symObjAddr: 0x1E80, symBinAddr: 0x1000067A8, symSize: 0x34 }
  - { offsetInCU: 0x8C57, offset: 0x12F59, size: 0x8, addend: 0x0, symName: __ZNKSt3__116reverse_iteratorIPP5TupleIPKcmEE4baseB8ue170006Ev, symObjAddr: 0x1EB4, symBinAddr: 0x1000067DC, symSize: 0x18 }
  - { offsetInCU: 0x8C7B, offset: 0x12F7D, size: 0x8, addend: 0x0, symName: __ZNKSt3__16vectorIP5TupleIPKcmENS_9allocatorIS5_EEE14__annotate_newB8ue170006Em, symObjAddr: 0x1F08, symBinAddr: 0x100006830, symSize: 0xAC }
  - { offsetInCU: 0x8CAF, offset: 0x12FB1, size: 0x8, addend: 0x0, symName: __ZNKSt3__116reverse_iteratorIPP5TupleIPKcmEEdeB8ue170006Ev, symObjAddr: 0x204C, symBinAddr: 0x100006974, symSize: 0x28 }
  - { offsetInCU: 0x8CE1, offset: 0x12FE3, size: 0x8, addend: 0x0, symName: __ZNSt3__116reverse_iteratorIPP5TupleIPKcmEEppB8ue170006Ev, symObjAddr: 0x2074, symBinAddr: 0x10000699C, symSize: 0x20 }
  - { offsetInCU: 0x8D0A, offset: 0x1300C, size: 0x8, addend: 0x0, symName: __ZNSt3__119__to_address_helperINS_16reverse_iteratorIPP5TupleIPKcmEEEvE6__callB8ue170006ERKS8_, symObjAddr: 0x210C, symBinAddr: 0x100006A34, symSize: 0x4C }
  - { offsetInCU: 0x8D2D, offset: 0x1302F, size: 0x8, addend: 0x0, symName: __ZNKSt3__116reverse_iteratorIPP5TupleIPKcmEEptB8ue170006Ev, symObjAddr: 0x2158, symBinAddr: 0x100006A80, symSize: 0x24 }
  - { offsetInCU: 0x8D75, offset: 0x13077, size: 0x8, addend: 0x0, symName: __ZNKSt3__111__move_loopINS_17_ClassicAlgPolicyEEclB8ue170006INS_16reverse_iteratorIPP5TupleIPKcmEEESB_SB_EENS_4pairIT_T1_EESD_T0_SE_, symObjAddr: 0x23F4, symBinAddr: 0x100006D1C, symSize: 0xA0 }
  - { offsetInCU: 0x8DE4, offset: 0x130E6, size: 0x8, addend: 0x0, symName: __ZNSt3__18_IterOpsINS_17_ClassicAlgPolicyEE11__iter_moveB8ue170006IRNS_16reverse_iteratorIPP5TupleIPKcmEEEEENS_9enable_ifIXsr12is_referenceIDTdeclsr3stdE7declvalIRT_EEEEE5valueEDTclsr3stdE4movedeclsr3stdE7declvalISF_EEEEE4typeEOSE_, symObjAddr: 0x25F4, symBinAddr: 0x100006F1C, symSize: 0x28 }
  - { offsetInCU: 0x8E10, offset: 0x13112, size: 0x8, addend: 0x0, symName: __ZNSt3__18_IterOpsINS_17_ClassicAlgPolicyEE25__validate_iter_referenceB8ue170006IRNS_16reverse_iteratorIPP5TupleIPKcmEEEEEvv, symObjAddr: 0x261C, symBinAddr: 0x100006F44, symSize: 0x4 }
  - { offsetInCU: 0x8E2E, offset: 0x13130, size: 0x8, addend: 0x0, symName: __ZNSt3__118__unwrap_iter_implINS_16reverse_iteratorIPP5TupleIPKcmEEELb0EE8__unwrapB8ue170006ES8_, symObjAddr: 0x2620, symBinAddr: 0x100006F48, symSize: 0x24 }
  - { offsetInCU: 0x8E50, offset: 0x13152, size: 0x8, addend: 0x0, symName: __ZNSt3__14pairINS_16reverse_iteratorIPP5TupleIPKcmEEES8_EC1B8ue170006ERKS8_SB_, symObjAddr: 0x2644, symBinAddr: 0x100006F6C, symSize: 0x3C }
  - { offsetInCU: 0x8E96, offset: 0x13198, size: 0x8, addend: 0x0, symName: __ZNSt3__14pairINS_16reverse_iteratorIPP5TupleIPKcmEEES8_EC2B8ue170006ERKS8_SB_, symObjAddr: 0x2680, symBinAddr: 0x100006FA8, symSize: 0x34 }
  - { offsetInCU: 0x8EDB, offset: 0x131DD, size: 0x8, addend: 0x0, symName: __ZNSt3__118__unwrap_iter_implINS_16reverse_iteratorIPP5TupleIPKcmEEELb0EE8__rewrapB8ue170006ES8_S8_, symObjAddr: 0x26B4, symBinAddr: 0x100006FDC, symSize: 0x2C }
  - { offsetInCU: 0x8F09, offset: 0x1320B, size: 0x8, addend: 0x0, symName: __ZNSt3__116reverse_iteratorIPP5TupleIPKcmEEC2B8ue170006ES6_, symObjAddr: 0x26E0, symBinAddr: 0x100007008, symSize: 0x28 }
  - { offsetInCU: 0x8F40, offset: 0x13242, size: 0x8, addend: 0x0, symName: __ZNSt3__114__split_bufferIP5TupleIPKcmERNS_9allocatorIS5_EEED2Ev, symObjAddr: 0x2708, symBinAddr: 0x100007030, symSize: 0x80 }
  - { offsetInCU: 0x8F6B, offset: 0x1326D, size: 0x8, addend: 0x0, symName: __ZNSt3__114__split_bufferIP5TupleIPKcmERNS_9allocatorIS5_EEE5clearB8ue170006Ev, symObjAddr: 0x2788, symBinAddr: 0x1000070B0, symSize: 0x28 }
  - { offsetInCU: 0x8F90, offset: 0x13292, size: 0x8, addend: 0x0, symName: __ZNKSt3__114__split_bufferIP5TupleIPKcmERNS_9allocatorIS5_EEE8capacityB8ue170006Ev, symObjAddr: 0x27B0, symBinAddr: 0x1000070D8, symSize: 0x40 }
  - { offsetInCU: 0x8FB5, offset: 0x132B7, size: 0x8, addend: 0x0, symName: __ZNSt3__114__split_bufferIP5TupleIPKcmERNS_9allocatorIS5_EEE17__destruct_at_endB8ue170006EPS5_, symObjAddr: 0x27F0, symBinAddr: 0x100007118, symSize: 0x2C }
  - { offsetInCU: 0x8FE7, offset: 0x132E9, size: 0x8, addend: 0x0, symName: __ZNSt3__114__split_bufferIP5TupleIPKcmERNS_9allocatorIS5_EEE17__destruct_at_endB8ue170006EPS5_NS_17integral_constantIbLb0EEE, symObjAddr: 0x281C, symBinAddr: 0x100007144, symSize: 0x94 }
  - { offsetInCU: 0x9028, offset: 0x1332A, size: 0x8, addend: 0x0, symName: __ZNKSt3__114__split_bufferIP5TupleIPKcmERNS_9allocatorIS5_EEE9__end_capB8ue170006Ev, symObjAddr: 0x28B0, symBinAddr: 0x1000071D8, symSize: 0x28 }
  - { offsetInCU: 0x904D, offset: 0x1334F, size: 0x8, addend: 0x0, symName: __ZNKSt3__117__compressed_pairIPP5TupleIPKcmERNS_9allocatorIS5_EEE5firstB8ue170006Ev, symObjAddr: 0x28D8, symBinAddr: 0x100007200, symSize: 0x24 }
  - { offsetInCU: 0x9072, offset: 0x13374, size: 0x8, addend: 0x0, symName: __ZNKSt3__111__wrap_iterIPP5TupleIPKcmEE4baseB8ue170006Ev, symObjAddr: 0x2B14, symBinAddr: 0x10000743C, symSize: 0x18 }
  - { offsetInCU: 0x9096, offset: 0x13398, size: 0x8, addend: 0x0, symName: __ZNKSt3__111__wrap_iterIPP5TupleIPKcmEEplB8ue170006El, symObjAddr: 0x2B2C, symBinAddr: 0x100007454, symSize: 0x3C }
  - { offsetInCU: 0x90D7, offset: 0x133D9, size: 0x8, addend: 0x0, symName: __ZN14PairComparatorclEPK5TupleIPKcmES5_, symObjAddr: 0x2B68, symBinAddr: 0x100007490, symSize: 0x34 }
  - { offsetInCU: 0x9117, offset: 0x13419, size: 0x8, addend: 0x0, symName: __ZNKSt3__111__wrap_iterIPP5TupleIPKcmEEdeB8ue170006Ev, symObjAddr: 0x2B9C, symBinAddr: 0x1000074C4, symSize: 0x18 }
  - { offsetInCU: 0x913B, offset: 0x1343D, size: 0x8, addend: 0x0, symName: __ZNSt3__111__wrap_iterIPP5TupleIPKcmEEmmB8ue170006Ev, symObjAddr: 0x2BB4, symBinAddr: 0x1000074DC, symSize: 0x20 }
  - { offsetInCU: 0x915F, offset: 0x13461, size: 0x8, addend: 0x0, symName: __ZNSt3__18_IterOpsINS_17_ClassicAlgPolicyEE11__iter_moveB8ue170006IRNS_11__wrap_iterIPP5TupleIPKcmEEEEENS_9enable_ifIXsr12is_referenceIDTdeclsr3stdE7declvalIRT_EEEEE5valueEDTclsr3stdE4movedeclsr3stdE7declvalISF_EEEEE4typeEOSE_, symObjAddr: 0x2BD4, symBinAddr: 0x1000074FC, symSize: 0x28 }
  - { offsetInCU: 0x918B, offset: 0x1348D, size: 0x8, addend: 0x0, symName: __ZNSt3__111__wrap_iterIPP5TupleIPKcmEEpLB8ue170006El, symObjAddr: 0x2BFC, symBinAddr: 0x100007524, symSize: 0x28 }
  - { offsetInCU: 0x91BD, offset: 0x134BF, size: 0x8, addend: 0x0, symName: __ZNSt3__18_IterOpsINS_17_ClassicAlgPolicyEE25__validate_iter_referenceB8ue170006IRNS_11__wrap_iterIPP5TupleIPKcmEEEEEvv, symObjAddr: 0x2C24, symBinAddr: 0x10000754C, symSize: 0x4 }
  - { offsetInCU: 0x91DB, offset: 0x134DD, size: 0x8, addend: 0x0, symName: __ZNSt3__16vectorIP5TupleIPKcmENS_9allocatorIS5_EEE11__make_iterB8ue170006EPS5_, symObjAddr: 0x2C28, symBinAddr: 0x100007550, symSize: 0x30 }
  - { offsetInCU: 0x920E, offset: 0x13510, size: 0x8, addend: 0x0, symName: __ZNSt3__111__wrap_iterIPP5TupleIPKcmEEC1B8ue170006ES6_, symObjAddr: 0x2C58, symBinAddr: 0x100007580, symSize: 0x34 }
  - { offsetInCU: 0x9246, offset: 0x13548, size: 0x8, addend: 0x0, symName: __ZNSt3__111__wrap_iterIPP5TupleIPKcmEEC2B8ue170006ES6_, symObjAddr: 0x2C8C, symBinAddr: 0x1000075B4, symSize: 0x20 }
  - { offsetInCU: 0x927D, offset: 0x1357F, size: 0x8, addend: 0x0, symName: __ZNKSt3__16vectorIP5TupleIPKcmENS_9allocatorIS5_EEE5frontB8ue170006Ev, symObjAddr: 0x2CAC, symBinAddr: 0x1000075D4, symSize: 0x18 }
  - { offsetInCU: 0x92A0, offset: 0x135A2, size: 0x8, addend: 0x0, symName: __ZNSt3__16vectorIP5TupleIPKcmENS_9allocatorIS5_EEE8pop_backEv, symObjAddr: 0x2D1C, symBinAddr: 0x100007644, symSize: 0x2C }
  - { offsetInCU: 0x92C8, offset: 0x135CA, size: 0x8, addend: 0x0, symName: __ZNSt3__111__wrap_iterIPP5TupleIPKcmEEppB8ue170006Ev, symObjAddr: 0x3028, symBinAddr: 0x100007950, symSize: 0x20 }
  - { offsetInCU: 0x92EC, offset: 0x135EE, size: 0x8, addend: 0x0, symName: __ZNSt3__16vectorIP5TupleIPKcmENS_9allocatorIS5_EEE17__destruct_at_endB8ue170006EPS5_, symObjAddr: 0x3048, symBinAddr: 0x100007970, symSize: 0x4C }
  - { offsetInCU: 0x932F, offset: 0x13631, size: 0x8, addend: 0x0, symName: __ZNKSt3__16vectorIP5TupleIPKcmENS_9allocatorIS5_EEE17__annotate_shrinkB8ue170006Em, symObjAddr: 0x3094, symBinAddr: 0x1000079BC, symSize: 0xB4 }
  - { offsetInCU: 0x9363, offset: 0x13665, size: 0x8, addend: 0x0, symName: __ZNKSt3__16vectorIP5TupleIPKcmENS_9allocatorIS5_EEE5emptyB8ue170006Ev, symObjAddr: 0x3148, symBinAddr: 0x100007A70, symSize: 0x28 }
  - { offsetInCU: 0x9387, offset: 0x13689, size: 0x8, addend: 0x0, symName: __ZNSt3__18_IterOpsINS_17_ClassicAlgPolicyEE9iter_swapB8ue170006IRPP5TupleIPKcmESA_EEvOT_OT0_, symObjAddr: 0x321C, symBinAddr: 0x100007B44, symSize: 0x34 }
  - { offsetInCU: 0x3F, offset: 0x137B5, size: 0x8, addend: 0x0, symName: _optVerbose, symObjAddr: 0x33487, symBinAddr: 0x100010000, symSize: 0x0 }
  - { offsetInCU: 0x567F, offset: 0x18DF5, size: 0x8, addend: 0x0, symName: __ZNSt3__1neB8ue170006IPKNS_12basic_stringIcNS_11char_traitsIcEENS_9allocatorIcEEEEEEbRKNS_11__wrap_iterIT_EESD_, symObjAddr: 0x2BC, symBinAddr: 0x100007E54, symSize: 0x34 }
  - { offsetInCU: 0x6467, offset: 0x19BDD, size: 0x8, addend: 0x0, symName: __ZNSt3__17getlineB8ue170006IcNS_11char_traitsIcEENS_9allocatorIcEEEERNS_13basic_istreamIT_T0_EES9_RNS_12basic_stringIS6_S7_T1_EE, symObjAddr: 0xC28, symBinAddr: 0x100008570, symSize: 0x5C }
  - { offsetInCU: 0x64BF, offset: 0x19C35, size: 0x8, addend: 0x0, symName: __ZNSt3__1neB8ue170006IcNS_11char_traitsIcEENS_9allocatorIcEEEEbRKNS_12basic_stringIT_T0_T1_EEPKS6_, symObjAddr: 0xC84, symBinAddr: 0x1000085CC, symSize: 0x34 }
  - { offsetInCU: 0x6517, offset: 0x19C8D, size: 0x8, addend: 0x0, symName: __ZNSt3__1rsB8ue170006IcNS_11char_traitsIcEENS_9allocatorIcEEEERNS_13basic_istreamIT_T0_EES9_RNS_12basic_stringIS6_S7_T1_EE, symObjAddr: 0xD78, symBinAddr: 0x1000086C0, symSize: 0x310 }
  - { offsetInCU: 0x65EF, offset: 0x19D65, size: 0x8, addend: 0x0, symName: __ZNSt3__1eqB8ue170006IPKNS_12basic_stringIcNS_11char_traitsIcEENS_9allocatorIcEEEEEEbRKNS_11__wrap_iterIT_EESD_, symObjAddr: 0x1F28, symBinAddr: 0x100008C50, symSize: 0x48 }
  - { offsetInCU: 0x6632, offset: 0x19DA8, size: 0x8, addend: 0x0, symName: __ZNSt3__17getlineB8ue170006IcNS_11char_traitsIcEENS_9allocatorIcEEEERNS_13basic_istreamIT_T0_EES9_RNS_12basic_stringIS6_S7_T1_EES6_, symObjAddr: 0x27B8, symBinAddr: 0x10000921C, symSize: 0x238 }
  - { offsetInCU: 0x6925, offset: 0x1A09B, size: 0x8, addend: 0x0, symName: __ZNSt3__1eqB8ue170006IcNS_11char_traitsIcEENS_9allocatorIcEEEEbRKNS_12basic_stringIT_T0_T1_EEPKS6_, symObjAddr: 0x2E14, symBinAddr: 0x100009878, symSize: 0xC0 }
  - { offsetInCU: 0x698C, offset: 0x1A102, size: 0x8, addend: 0x0, symName: __ZNSt3__119__allocate_at_leastB8ue170006INS_9allocatorINS_12basic_stringIcNS_11char_traitsIcEENS1_IcEEEEEEEENS_19__allocation_resultINS_16allocator_traitsIT_E7pointerEEERSA_m, symObjAddr: 0x39A8, symBinAddr: 0x10000A0C4, symSize: 0x40 }
  - { offsetInCU: 0x69CF, offset: 0x1A145, size: 0x8, addend: 0x0, symName: __ZNSt3__142__uninitialized_allocator_move_if_noexceptB8ue170006INS_9allocatorINS_12basic_stringIcNS_11char_traitsIcEENS1_IcEEEEEENS_16reverse_iteratorIPS6_EESA_SA_EET2_RT_T0_T1_SB_, symObjAddr: 0x3C80, symBinAddr: 0x10000A2AC, symSize: 0x134 }
  - { offsetInCU: 0x6A6F, offset: 0x1A1E5, size: 0x8, addend: 0x0, symName: __ZNSt3__14swapB8ue170006IPNS_12basic_stringIcNS_11char_traitsIcEENS_9allocatorIcEEEEEEvRT_S9_, symObjAddr: 0x3E00, symBinAddr: 0x10000A42C, symSize: 0x3C }
  - { offsetInCU: 0x6AC0, offset: 0x1A236, size: 0x8, addend: 0x0, symName: __ZNSt3__122__make_exception_guardB8ue170006INS_29_AllocatorDestroyRangeReverseINS_9allocatorINS_12basic_stringIcNS_11char_traitsIcEENS2_IcEEEEEENS_16reverse_iteratorIPS7_EEEEEENS_28__exception_guard_exceptionsIT_EESE_, symObjAddr: 0x3F4C, symBinAddr: 0x10000A530, symSize: 0x4C }
  - { offsetInCU: 0x6AF6, offset: 0x1A26C, size: 0x8, addend: 0x0, symName: __ZNSt3__1neB8ue170006IPNS_12basic_stringIcNS_11char_traitsIcEENS_9allocatorIcEEEES7_EEbRKNS_16reverse_iteratorIT_EERKNS8_IT0_EE, symObjAddr: 0x3FDC, symBinAddr: 0x10000A5C0, symSize: 0x48 }
  - { offsetInCU: 0x6B42, offset: 0x1A2B8, size: 0x8, addend: 0x0, symName: __ZNSt3__112__to_addressB8ue170006INS_16reverse_iteratorIPNS_12basic_stringIcNS_11char_traitsIcEENS_9allocatorIcEEEEEEvEEu7__decayIDTclsr19__to_address_helperIT_EE6__callclsr3stdE7declvalIRKSA_EEEEESC_, symObjAddr: 0x4024, symBinAddr: 0x10000A608, symSize: 0x24 }
  - { offsetInCU: 0x6BA2, offset: 0x1A318, size: 0x8, addend: 0x0, symName: __ZNSt3__119__allocator_destroyB8ue170006INS_9allocatorINS_12basic_stringIcNS_11char_traitsIcEENS1_IcEEEEEENS_16reverse_iteratorINS8_IPS6_EEEESB_EEvRT_T0_T1_, symObjAddr: 0x42E0, symBinAddr: 0x10000A8C4, symSize: 0x70 }
  - { offsetInCU: 0x6C07, offset: 0x1A37D, size: 0x8, addend: 0x0, symName: __ZNSt3__1neB8ue170006INS_16reverse_iteratorIPNS_12basic_stringIcNS_11char_traitsIcEENS_9allocatorIcEEEEEES9_EEbRKNS1_IT_EERKNS1_IT0_EE, symObjAddr: 0x438C, symBinAddr: 0x10000A970, symSize: 0x60 }
  - { offsetInCU: 0x6C53, offset: 0x1A3C9, size: 0x8, addend: 0x0, symName: __ZNSt3__112__to_addressB8ue170006INS_16reverse_iteratorINS1_IPNS_12basic_stringIcNS_11char_traitsIcEENS_9allocatorIcEEEEEEEEvEEu7__decayIDTclsr19__to_address_helperIT_EE6__callclsr3stdE7declvalIRKSB_EEEEESD_, symObjAddr: 0x4418, symBinAddr: 0x10000A9D0, symSize: 0x24 }
  - { offsetInCU: 0x70A0, offset: 0x1A816, size: 0x8, addend: 0x0, symName: __ZNSt3__16vectorINS_12basic_stringIcNS_11char_traitsIcEENS_9allocatorIcEEEENS4_IS6_EEE26__swap_out_circular_bufferERNS_14__split_bufferIS6_RS7_EE, symObjAddr: 0x3350, symBinAddr: 0x100009D40, symSize: 0x110 }
  - { offsetInCU: 0x8ECC, offset: 0x1C642, size: 0x8, addend: 0x0, symName: __Z12CompareEqualPKcS0_, symObjAddr: 0x0, symBinAddr: 0x100007BE0, symSize: 0x100 }
  - { offsetInCU: 0x8F06, offset: 0x1C67C, size: 0x8, addend: 0x0, symName: __Z14BuildHashTableRKNSt3__16vectorINS_12basic_stringIcNS_11char_traitsIcEENS_9allocatorIcEEEENS4_IS6_EEEE, symObjAddr: 0x148, symBinAddr: 0x100007CE0, symSize: 0xE8 }
  - { offsetInCU: 0x8FB6, offset: 0x1C72C, size: 0x8, addend: 0x0, symName: __ZN9HashTableIPKcmEC1Ev, symObjAddr: 0x230, symBinAddr: 0x100007DC8, symSize: 0x2C }
  - { offsetInCU: 0x8FDE, offset: 0x1C754, size: 0x8, addend: 0x0, symName: __ZNKSt3__16vectorINS_12basic_stringIcNS_11char_traitsIcEENS_9allocatorIcEEEENS4_IS6_EEE5beginB8ue170006Ev, symObjAddr: 0x25C, symBinAddr: 0x100007DF4, symSize: 0x30 }
  - { offsetInCU: 0x9005, offset: 0x1C77B, size: 0x8, addend: 0x0, symName: __ZNKSt3__16vectorINS_12basic_stringIcNS_11char_traitsIcEENS_9allocatorIcEEEENS4_IS6_EEE3endB8ue170006Ev, symObjAddr: 0x28C, symBinAddr: 0x100007E24, symSize: 0x30 }
  - { offsetInCU: 0x902C, offset: 0x1C7A2, size: 0x8, addend: 0x0, symName: __ZNKSt3__111__wrap_iterIPKNS_12basic_stringIcNS_11char_traitsIcEENS_9allocatorIcEEEEEdeB8ue170006Ev, symObjAddr: 0x2F0, symBinAddr: 0x100007E88, symSize: 0x18 }
  - { offsetInCU: 0x9051, offset: 0x1C7C7, size: 0x8, addend: 0x0, symName: __ZNKSt3__112basic_stringIcNS_11char_traitsIcEENS_9allocatorIcEEE5c_strB8ue170006Ev, symObjAddr: 0x558, symBinAddr: 0x100007EA0, symSize: 0x24 }
  - { offsetInCU: 0x9075, offset: 0x1C7EB, size: 0x8, addend: 0x0, symName: __ZNSt3__111__wrap_iterIPKNS_12basic_stringIcNS_11char_traitsIcEENS_9allocatorIcEEEEEppB8ue170006Ev, symObjAddr: 0x57C, symBinAddr: 0x100007EC4, symSize: 0x20 }
  - { offsetInCU: 0x909A, offset: 0x1C810, size: 0x8, addend: 0x0, symName: __Z14CollectWordsIniPPcRNSt3__16vectorINS1_12basic_stringIcNS1_11char_traitsIcEENS1_9allocatorIcEEEENS6_IS8_EEEE, symObjAddr: 0x59C, symBinAddr: 0x100007EE4, symSize: 0x490 }
  - { offsetInCU: 0x927A, offset: 0x1C9F0, size: 0x8, addend: 0x0, symName: __ZNSt3__114basic_ifstreamIcNS_11char_traitsIcEEEC1EPKcj, symObjAddr: 0xA2C, symBinAddr: 0x100008374, symSize: 0x17C }
  - { offsetInCU: 0x92C2, offset: 0x1CA38, size: 0x8, addend: 0x0, symName: __ZNKSt3__114basic_ifstreamIcNS_11char_traitsIcEEE7is_openEv, symObjAddr: 0xBA8, symBinAddr: 0x1000084F0, symSize: 0x2C }
  - { offsetInCU: 0x92EA, offset: 0x1CA60, size: 0x8, addend: 0x0, symName: __ZNSt3__112basic_stringIcNS_11char_traitsIcEENS_9allocatorIcEEEC1B8ue170006Ev, symObjAddr: 0xBD4, symBinAddr: 0x10000851C, symSize: 0x2C }
  - { offsetInCU: 0x9313, offset: 0x1CA89, size: 0x8, addend: 0x0, symName: __ZNKSt3__19basic_iosIcNS_11char_traitsIcEEE3eofB8ue170006Ev, symObjAddr: 0xC00, symBinAddr: 0x100008548, symSize: 0x28 }
  - { offsetInCU: 0x9337, offset: 0x1CAAD, size: 0x8, addend: 0x0, symName: __ZNSt3__16vectorINS_12basic_stringIcNS_11char_traitsIcEENS_9allocatorIcEEEENS4_IS6_EEE9push_backB8ue170006ERKS6_, symObjAddr: 0xCB8, symBinAddr: 0x100008600, symSize: 0x6C }
  - { offsetInCU: 0x936E, offset: 0x1CAE4, size: 0x8, addend: 0x0, symName: __ZNKSt3__112basic_stringIcNS_11char_traitsIcEENS_9allocatorIcEEE4sizeB8ue170006Ev, symObjAddr: 0xD24, symBinAddr: 0x10000866C, symSize: 0x54 }
  - { offsetInCU: 0x9393, offset: 0x1CB09, size: 0x8, addend: 0x0, symName: __ZNKSt3__19basic_iosIcNS_11char_traitsIcEEEcvPvB8ue170006Ev, symObjAddr: 0x1088, symBinAddr: 0x1000089D0, symSize: 0x4C }
  - { offsetInCU: 0x93BD, offset: 0x1CB33, size: 0x8, addend: 0x0, symName: __ZNSt3__114basic_ifstreamIcNS_11char_traitsIcEEED1Ev, symObjAddr: 0x118C, symBinAddr: 0x100008A1C, symSize: 0x70 }
  - { offsetInCU: 0x93E9, offset: 0x1CB5F, size: 0x8, addend: 0x0, symName: __ZNSt3__114basic_ifstreamIcNS_11char_traitsIcEEED2Ev, symObjAddr: 0x11FC, symBinAddr: 0x100008A8C, symSize: 0x9C }
  - { offsetInCU: 0x9421, offset: 0x1CB97, size: 0x8, addend: 0x0, symName: __ZTv0_n24_NSt3__114basic_ifstreamIcNS_11char_traitsIcEEED1Ev, symObjAddr: 0x1298, symBinAddr: 0x100008B28, symSize: 0x28 }
  - { offsetInCU: 0x943D, offset: 0x1CBB3, size: 0x8, addend: 0x0, symName: __ZN9HashTableIPKcmEC2Ev, symObjAddr: 0x1E28, symBinAddr: 0x100008B50, symSize: 0x7C }
  - { offsetInCU: 0x9466, offset: 0x1CBDC, size: 0x8, addend: 0x0, symName: __ZNKSt3__16vectorINS_12basic_stringIcNS_11char_traitsIcEENS_9allocatorIcEEEENS4_IS6_EEE11__make_iterB8ue170006EPKS6_, symObjAddr: 0x1EA4, symBinAddr: 0x100008BCC, symSize: 0x30 }
  - { offsetInCU: 0x949A, offset: 0x1CC10, size: 0x8, addend: 0x0, symName: __ZNSt3__111__wrap_iterIPKNS_12basic_stringIcNS_11char_traitsIcEENS_9allocatorIcEEEEEC1B8ue170006ES8_, symObjAddr: 0x1ED4, symBinAddr: 0x100008BFC, symSize: 0x34 }
  - { offsetInCU: 0x94D1, offset: 0x1CC47, size: 0x8, addend: 0x0, symName: __ZNSt3__111__wrap_iterIPKNS_12basic_stringIcNS_11char_traitsIcEENS_9allocatorIcEEEEEC2B8ue170006ES8_, symObjAddr: 0x1F08, symBinAddr: 0x100008C30, symSize: 0x20 }
  - { offsetInCU: 0x9507, offset: 0x1CC7D, size: 0x8, addend: 0x0, symName: __ZNKSt3__111__wrap_iterIPKNS_12basic_stringIcNS_11char_traitsIcEENS_9allocatorIcEEEEE4baseB8ue170006Ev, symObjAddr: 0x1F70, symBinAddr: 0x100008C98, symSize: 0x18 }
  - { offsetInCU: 0x952C, offset: 0x1CCA2, size: 0x8, addend: 0x0, symName: __ZNSt3__19basic_iosIcNS_11char_traitsIcEEEC2B8ue170006Ev, symObjAddr: 0x21CC, symBinAddr: 0x100008CB0, symSize: 0x44 }
  - { offsetInCU: 0x9555, offset: 0x1CCCB, size: 0x8, addend: 0x0, symName: __ZNSt3__113basic_istreamIcNS_11char_traitsIcEEEC2B8ue170006EPNS_15basic_streambufIcS2_EE, symObjAddr: 0x2210, symBinAddr: 0x100008CF4, symSize: 0x64 }
  - { offsetInCU: 0x9598, offset: 0x1CD0E, size: 0x8, addend: 0x0, symName: __ZNSt3__18ios_baseC2B8ue170006Ev, symObjAddr: 0x2274, symBinAddr: 0x100008D58, symSize: 0x24 }
  - { offsetInCU: 0x95C0, offset: 0x1CD36, size: 0x8, addend: 0x0, symName: __ZNSt3__19basic_iosIcNS_11char_traitsIcEEE4initB8ue170006EPNS_15basic_streambufIcS2_EE, symObjAddr: 0x2298, symBinAddr: 0x100008D7C, symSize: 0x44 }
  - { offsetInCU: 0x95F7, offset: 0x1CD6D, size: 0x8, addend: 0x0, symName: __ZNKSt3__113basic_filebufIcNS_11char_traitsIcEEE7is_openEv, symObjAddr: 0x22DC, symBinAddr: 0x100008DC0, symSize: 0x24 }
  - { offsetInCU: 0x961E, offset: 0x1CD94, size: 0x8, addend: 0x0, symName: __ZNSt3__112basic_stringIcNS_11char_traitsIcEENS_9allocatorIcEEEC2B8ue170006Ev, symObjAddr: 0x2300, symBinAddr: 0x100008DE4, symSize: 0x3C }
  - { offsetInCU: 0x9647, offset: 0x1CDBD, size: 0x8, addend: 0x0, symName: __ZNSt3__112basic_stringIcNS_11char_traitsIcEENS_9allocatorIcEEE14__default_initB8ue170006Ev, symObjAddr: 0x233C, symBinAddr: 0x100008E20, symSize: 0xB0 }
  - { offsetInCU: 0x9699, offset: 0x1CE0F, size: 0x8, addend: 0x0, symName: __ZNSt3__117__compressed_pairINS_12basic_stringIcNS_11char_traitsIcEENS_9allocatorIcEEE5__repES5_E5firstB8ue170006Ev, symObjAddr: 0x23EC, symBinAddr: 0x100008ED0, symSize: 0x24 }
  - { offsetInCU: 0x96BE, offset: 0x1CE34, size: 0x8, addend: 0x0, symName: __ZNSt3__112basic_stringIcNS_11char_traitsIcEENS_9allocatorIcEEE11__recommendB8ue170006Em, symObjAddr: 0x2410, symBinAddr: 0x100008EF4, symSize: 0x9C }
  - { offsetInCU: 0x96F1, offset: 0x1CE67, size: 0x8, addend: 0x0, symName: __ZNSt3__116allocator_traitsINS_9allocatorIcEEE8allocateB8ue170006ERS2_m, symObjAddr: 0x24AC, symBinAddr: 0x100008F90, symSize: 0x2C }
  - { offsetInCU: 0x9724, offset: 0x1CE9A, size: 0x8, addend: 0x0, symName: __ZNSt3__112basic_stringIcNS_11char_traitsIcEENS_9allocatorIcEEE7__allocB8ue170006Ev, symObjAddr: 0x24D8, symBinAddr: 0x100008FBC, symSize: 0x24 }
  - { offsetInCU: 0x9749, offset: 0x1CEBF, size: 0x8, addend: 0x0, symName: __ZNSt3__112basic_stringIcNS_11char_traitsIcEENS_9allocatorIcEEE16__begin_lifetimeB8ue170006EPcm, symObjAddr: 0x24FC, symBinAddr: 0x100008FE0, symSize: 0x14 }
  - { offsetInCU: 0x977C, offset: 0x1CEF2, size: 0x8, addend: 0x0, symName: __ZNSt3__112basic_stringIcNS_11char_traitsIcEENS_9allocatorIcEEE18__set_long_pointerB8ue170006EPc, symObjAddr: 0x2510, symBinAddr: 0x100008FF4, symSize: 0x38 }
  - { offsetInCU: 0x97B0, offset: 0x1CF26, size: 0x8, addend: 0x0, symName: __ZNSt3__112basic_stringIcNS_11char_traitsIcEENS_9allocatorIcEEE14__set_long_capB8ue170006Em, symObjAddr: 0x2548, symBinAddr: 0x10000902C, symSize: 0x70 }
  - { offsetInCU: 0x97E4, offset: 0x1CF5A, size: 0x8, addend: 0x0, symName: __ZNSt3__112basic_stringIcNS_11char_traitsIcEENS_9allocatorIcEEE15__set_long_sizeB8ue170006Em, symObjAddr: 0x25B8, symBinAddr: 0x10000909C, symSize: 0x38 }
  - { offsetInCU: 0x9817, offset: 0x1CF8D, size: 0x8, addend: 0x0, symName: __ZNSt3__122__compressed_pair_elemINS_12basic_stringIcNS_11char_traitsIcEENS_9allocatorIcEEE5__repELi0ELb0EE5__getB8ue170006Ev, symObjAddr: 0x25F0, symBinAddr: 0x1000090D4, symSize: 0x14 }
  - { offsetInCU: 0x983C, offset: 0x1CFB2, size: 0x8, addend: 0x0, symName: __ZNSt3__112basic_stringIcNS_11char_traitsIcEENS_9allocatorIcEEE10__align_itB8ue170006ILm16EEEmm, symObjAddr: 0x2604, symBinAddr: 0x1000090E8, symSize: 0x1C }
  - { offsetInCU: 0x986A, offset: 0x1CFE0, size: 0x8, addend: 0x0, symName: __ZNSt3__19allocatorIcE8allocateB8ue170006Em, symObjAddr: 0x2620, symBinAddr: 0x100009104, symSize: 0x84 }
  - { offsetInCU: 0x98A7, offset: 0x1D01D, size: 0x8, addend: 0x0, symName: __ZNSt3__116allocator_traitsINS_9allocatorIcEEE8max_sizeB8ue170006IS2_vEEmRKS2_, symObjAddr: 0x26A4, symBinAddr: 0x100009188, symSize: 0x24 }
  - { offsetInCU: 0x98D4, offset: 0x1D04A, size: 0x8, addend: 0x0, symName: __ZNKSt3__19allocatorIcE8max_sizeB8ue170006Ev, symObjAddr: 0x2724, symBinAddr: 0x1000091AC, symSize: 0x14 }
  - { offsetInCU: 0x98F9, offset: 0x1D06F, size: 0x8, addend: 0x0, symName: __ZNSt3__117__compressed_pairINS_12basic_stringIcNS_11char_traitsIcEENS_9allocatorIcEEE5__repES5_E6secondB8ue170006Ev, symObjAddr: 0x275C, symBinAddr: 0x1000091C0, symSize: 0x24 }
  - { offsetInCU: 0x991D, offset: 0x1D093, size: 0x8, addend: 0x0, symName: __ZNSt3__122__compressed_pair_elemINS_9allocatorIcEELi1ELb1EE5__getB8ue170006Ev, symObjAddr: 0x2780, symBinAddr: 0x1000091E4, symSize: 0x14 }
  - { offsetInCU: 0x9942, offset: 0x1D0B8, size: 0x8, addend: 0x0, symName: __ZNKSt3__18ios_base3eofB8ue170006Ev, symObjAddr: 0x2794, symBinAddr: 0x1000091F8, symSize: 0x24 }
  - { offsetInCU: 0x9986, offset: 0x1D0FC, size: 0x8, addend: 0x0, symName: __ZNKSt3__113basic_istreamIcNS_11char_traitsIcEEE6sentrycvbB8ue170006Ev, symObjAddr: 0x29F0, symBinAddr: 0x100009454, symSize: 0x1C }
  - { offsetInCU: 0x99AA, offset: 0x1D120, size: 0x8, addend: 0x0, symName: __ZNSt3__112basic_stringIcNS_11char_traitsIcEENS_9allocatorIcEEE5clearB8ue170006Ev, symObjAddr: 0x2A0C, symBinAddr: 0x100009470, symSize: 0x78 }
  - { offsetInCU: 0x99D2, offset: 0x1D148, size: 0x8, addend: 0x0, symName: __ZNSt3__115basic_streambufIcNS_11char_traitsIcEEE6sbumpcB8ue170006Ev, symObjAddr: 0x2A84, symBinAddr: 0x1000094E8, symSize: 0x78 }
  - { offsetInCU: 0x99F7, offset: 0x1D16D, size: 0x8, addend: 0x0, symName: __ZNSt3__111char_traitsIcE12to_char_typeB8ue170006Ei, symObjAddr: 0x2AFC, symBinAddr: 0x100009560, symSize: 0x18 }
  - { offsetInCU: 0x9A1A, offset: 0x1D190, size: 0x8, addend: 0x0, symName: __ZNSt3__111char_traitsIcE2eqEcc, symObjAddr: 0x2B14, symBinAddr: 0x100009578, symSize: 0x28 }
  - { offsetInCU: 0x9A4B, offset: 0x1D1C1, size: 0x8, addend: 0x0, symName: __ZNKSt3__112basic_stringIcNS_11char_traitsIcEENS_9allocatorIcEEE8max_sizeB8ue170006Ev, symObjAddr: 0x2B3C, symBinAddr: 0x1000095A0, symSize: 0xAC }
  - { offsetInCU: 0x9A9C, offset: 0x1D212, size: 0x8, addend: 0x0, symName: __ZNSt3__18ios_base18__setstate_nothrowB8ue170006Ej, symObjAddr: 0x2BE8, symBinAddr: 0x10000964C, symSize: 0x64 }
  - { offsetInCU: 0x9AD0, offset: 0x1D246, size: 0x8, addend: 0x0, symName: __ZNKSt3__19basic_iosIcNS_11char_traitsIcEEE10exceptionsB8ue170006Ev, symObjAddr: 0x2C4C, symBinAddr: 0x1000096B0, symSize: 0x24 }
  - { offsetInCU: 0x9AF5, offset: 0x1D26B, size: 0x8, addend: 0x0, symName: __ZNSt3__111char_traitsIcE6assignB8ue170006ERcRKc, symObjAddr: 0x2C70, symBinAddr: 0x1000096D4, symSize: 0x24 }
  - { offsetInCU: 0x9B26, offset: 0x1D29C, size: 0x8, addend: 0x0, symName: __ZNSt3__112basic_stringIcNS_11char_traitsIcEENS_9allocatorIcEEE18__get_long_pointerB8ue170006Ev, symObjAddr: 0x2C94, symBinAddr: 0x1000096F8, symSize: 0x28 }
  - { offsetInCU: 0x9B4B, offset: 0x1D2C1, size: 0x8, addend: 0x0, symName: __ZNSt3__112basic_stringIcNS_11char_traitsIcEENS_9allocatorIcEEE19__get_short_pointerB8ue170006Ev, symObjAddr: 0x2CBC, symBinAddr: 0x100009720, symSize: 0x28 }
  - { offsetInCU: 0x9B70, offset: 0x1D2E6, size: 0x8, addend: 0x0, symName: __ZNSt3__112basic_stringIcNS_11char_traitsIcEENS_9allocatorIcEEE16__set_short_sizeB8ue170006Em, symObjAddr: 0x2CE4, symBinAddr: 0x100009748, symSize: 0x78 }
  - { offsetInCU: 0x9BA4, offset: 0x1D31A, size: 0x8, addend: 0x0, symName: __ZNSt3__114pointer_traitsIPcE10pointer_toB8ue170006ERc, symObjAddr: 0x2D5C, symBinAddr: 0x1000097C0, symSize: 0x14 }
  - { offsetInCU: 0x9BC7, offset: 0x1D33D, size: 0x8, addend: 0x0, symName: __ZNSt3__111char_traitsIcE11to_int_typeB8ue170006Ec, symObjAddr: 0x2D70, symBinAddr: 0x1000097D4, symSize: 0x14 }
  - { offsetInCU: 0x9BEB, offset: 0x1D361, size: 0x8, addend: 0x0, symName: __ZNKSt3__112basic_stringIcNS_11char_traitsIcEENS_9allocatorIcEEE7__allocB8ue170006Ev, symObjAddr: 0x2D84, symBinAddr: 0x1000097E8, symSize: 0x24 }
  - { offsetInCU: 0x9C10, offset: 0x1D386, size: 0x8, addend: 0x0, symName: __ZNSt3__114numeric_limitsImE3maxB8ue170006Ev, symObjAddr: 0x2DA8, symBinAddr: 0x10000980C, symSize: 0x14 }
  - { offsetInCU: 0x9C24, offset: 0x1D39A, size: 0x8, addend: 0x0, symName: __ZNKSt3__117__compressed_pairINS_12basic_stringIcNS_11char_traitsIcEENS_9allocatorIcEEE5__repES5_E6secondB8ue170006Ev, symObjAddr: 0x2DBC, symBinAddr: 0x100009820, symSize: 0x24 }
  - { offsetInCU: 0x9C48, offset: 0x1D3BE, size: 0x8, addend: 0x0, symName: __ZNKSt3__122__compressed_pair_elemINS_9allocatorIcEELi1ELb1EE5__getB8ue170006Ev, symObjAddr: 0x2DE0, symBinAddr: 0x100009844, symSize: 0x14 }
  - { offsetInCU: 0x9C6D, offset: 0x1D3E3, size: 0x8, addend: 0x0, symName: __ZNSt3__123__libcpp_numeric_limitsImLb1EE3maxB8ue170006Ev, symObjAddr: 0x2DF4, symBinAddr: 0x100009858, symSize: 0x8 }
  - { offsetInCU: 0x9C81, offset: 0x1D3F7, size: 0x8, addend: 0x0, symName: __ZNKSt3__18ios_base10exceptionsB8ue170006Ev, symObjAddr: 0x2DFC, symBinAddr: 0x100009860, symSize: 0x18 }
  - { offsetInCU: 0x9CA8, offset: 0x1D41E, size: 0x8, addend: 0x0, symName: __ZNSt3__16vectorINS_12basic_stringIcNS_11char_traitsIcEENS_9allocatorIcEEEENS4_IS6_EEE9__end_capB8ue170006Ev, symObjAddr: 0x2ED4, symBinAddr: 0x100009938, symSize: 0x28 }
  - { offsetInCU: 0x9CCD, offset: 0x1D443, size: 0x8, addend: 0x0, symName: __ZNSt3__16vectorINS_12basic_stringIcNS_11char_traitsIcEENS_9allocatorIcEEEENS4_IS6_EEE22__construct_one_at_endB8ue170006IJRKS6_EEEvDpOT_, symObjAddr: 0x2EFC, symBinAddr: 0x100009960, symSize: 0x98 }
  - { offsetInCU: 0x9D1A, offset: 0x1D490, size: 0x8, addend: 0x0, symName: __ZNSt3__16vectorINS_12basic_stringIcNS_11char_traitsIcEENS_9allocatorIcEEEENS4_IS6_EEE21__push_back_slow_pathIRKS6_EEvOT_, symObjAddr: 0x2F94, symBinAddr: 0x1000099F8, symSize: 0xE0 }
  - { offsetInCU: 0x9D78, offset: 0x1D4EE, size: 0x8, addend: 0x0, symName: __ZNSt3__117__compressed_pairIPNS_12basic_stringIcNS_11char_traitsIcEENS_9allocatorIcEEEENS4_IS6_EEE5firstB8ue170006Ev, symObjAddr: 0x3074, symBinAddr: 0x100009AD8, symSize: 0x24 }
  - { offsetInCU: 0x9D9C, offset: 0x1D512, size: 0x8, addend: 0x0, symName: __ZNSt3__122__compressed_pair_elemIPNS_12basic_stringIcNS_11char_traitsIcEENS_9allocatorIcEEEELi0ELb0EE5__getB8ue170006Ev, symObjAddr: 0x3098, symBinAddr: 0x100009AFC, symSize: 0x14 }
  - { offsetInCU: 0x9DDA, offset: 0x1D550, size: 0x8, addend: 0x0, symName: __ZNSt3__16vectorINS_12basic_stringIcNS_11char_traitsIcEENS_9allocatorIcEEEENS4_IS6_EEE21_ConstructTransactionC1B8ue170006ERS8_m, symObjAddr: 0x30AC, symBinAddr: 0x100009B10, symSize: 0x3C }
  - { offsetInCU: 0x9E21, offset: 0x1D597, size: 0x8, addend: 0x0, symName: __ZNSt3__116allocator_traitsINS_9allocatorINS_12basic_stringIcNS_11char_traitsIcEENS1_IcEEEEEEE9constructB8ue170006IS6_JRKS6_EvEEvRS7_PT_DpOT0_, symObjAddr: 0x30E8, symBinAddr: 0x100009B4C, symSize: 0x34 }
  - { offsetInCU: 0x9E78, offset: 0x1D5EE, size: 0x8, addend: 0x0, symName: __ZNSt3__16vectorINS_12basic_stringIcNS_11char_traitsIcEENS_9allocatorIcEEEENS4_IS6_EEE21_ConstructTransactionD1B8ue170006Ev, symObjAddr: 0x3158, symBinAddr: 0x100009B80, symSize: 0x2C }
  - { offsetInCU: 0x9EA1, offset: 0x1D617, size: 0x8, addend: 0x0, symName: __ZNSt3__16vectorINS_12basic_stringIcNS_11char_traitsIcEENS_9allocatorIcEEEENS4_IS6_EEE21_ConstructTransactionC2B8ue170006ERS8_m, symObjAddr: 0x3184, symBinAddr: 0x100009BAC, symSize: 0x4C }
  - { offsetInCU: 0x9EE8, offset: 0x1D65E, size: 0x8, addend: 0x0, symName: __ZNSt3__19allocatorINS_12basic_stringIcNS_11char_traitsIcEENS0_IcEEEEE9constructB8ue170006IS5_JRKS5_EEEvPT_DpOT0_, symObjAddr: 0x31D0, symBinAddr: 0x100009BF8, symSize: 0x30 }
  - { offsetInCU: 0x9F3D, offset: 0x1D6B3, size: 0x8, addend: 0x0, symName: __ZNSt3__16vectorINS_12basic_stringIcNS_11char_traitsIcEENS_9allocatorIcEEEENS4_IS6_EEE21_ConstructTransactionD2B8ue170006Ev, symObjAddr: 0x3238, symBinAddr: 0x100009C28, symSize: 0x20 }
  - { offsetInCU: 0x9F65, offset: 0x1D6DB, size: 0x8, addend: 0x0, symName: __ZNKSt3__16vectorINS_12basic_stringIcNS_11char_traitsIcEENS_9allocatorIcEEEENS4_IS6_EEE11__recommendB8ue170006Em, symObjAddr: 0x3258, symBinAddr: 0x100009C48, symSize: 0xB4 }
  - { offsetInCU: 0x9FBA, offset: 0x1D730, size: 0x8, addend: 0x0, symName: __ZNSt3__114__split_bufferINS_12basic_stringIcNS_11char_traitsIcEENS_9allocatorIcEEEERNS4_IS6_EEEC1EmmS8_, symObjAddr: 0x330C, symBinAddr: 0x100009CFC, symSize: 0x44 }
  - { offsetInCU: 0xA00F, offset: 0x1D785, size: 0x8, addend: 0x0, symName: __ZNSt3__114__split_bufferINS_12basic_stringIcNS_11char_traitsIcEENS_9allocatorIcEEEERNS4_IS6_EEED1Ev, symObjAddr: 0x3460, symBinAddr: 0x100009E50, symSize: 0x2C }
  - { offsetInCU: 0xA039, offset: 0x1D7AF, size: 0x8, addend: 0x0, symName: __ZNKSt3__16vectorINS_12basic_stringIcNS_11char_traitsIcEENS_9allocatorIcEEEENS4_IS6_EEE8max_sizeEv, symObjAddr: 0x348C, symBinAddr: 0x100009E7C, symSize: 0x74 }
  - { offsetInCU: 0xA061, offset: 0x1D7D7, size: 0x8, addend: 0x0, symName: __ZNKSt3__16vectorINS_12basic_stringIcNS_11char_traitsIcEENS_9allocatorIcEEEENS4_IS6_EEE20__throw_length_errorB8ue170006Ev, symObjAddr: 0x3500, symBinAddr: 0x100009EF0, symSize: 0x1C }
  - { offsetInCU: 0xA090, offset: 0x1D806, size: 0x8, addend: 0x0, symName: __ZNSt3__116allocator_traitsINS_9allocatorINS_12basic_stringIcNS_11char_traitsIcEENS1_IcEEEEEEE8max_sizeB8ue170006IS7_vEEmRKS7_, symObjAddr: 0x35B4, symBinAddr: 0x100009F0C, symSize: 0x24 }
  - { offsetInCU: 0xA0BE, offset: 0x1D834, size: 0x8, addend: 0x0, symName: __ZNKSt3__16vectorINS_12basic_stringIcNS_11char_traitsIcEENS_9allocatorIcEEEENS4_IS6_EEE7__allocB8ue170006Ev, symObjAddr: 0x35D8, symBinAddr: 0x100009F30, symSize: 0x28 }
  - { offsetInCU: 0xA0E2, offset: 0x1D858, size: 0x8, addend: 0x0, symName: __ZNKSt3__19allocatorINS_12basic_stringIcNS_11char_traitsIcEENS0_IcEEEEE8max_sizeB8ue170006Ev, symObjAddr: 0x369C, symBinAddr: 0x100009F58, symSize: 0x18 }
  - { offsetInCU: 0xA107, offset: 0x1D87D, size: 0x8, addend: 0x0, symName: __ZNKSt3__117__compressed_pairIPNS_12basic_stringIcNS_11char_traitsIcEENS_9allocatorIcEEEENS4_IS6_EEE6secondB8ue170006Ev, symObjAddr: 0x36B4, symBinAddr: 0x100009F70, symSize: 0x24 }
  - { offsetInCU: 0xA12B, offset: 0x1D8A1, size: 0x8, addend: 0x0, symName: __ZNKSt3__122__compressed_pair_elemINS_9allocatorINS_12basic_stringIcNS_11char_traitsIcEENS1_IcEEEEEELi1ELb1EE5__getB8ue170006Ev, symObjAddr: 0x36D8, symBinAddr: 0x100009F94, symSize: 0x14 }
  - { offsetInCU: 0xA150, offset: 0x1D8C6, size: 0x8, addend: 0x0, symName: __ZNSt3__114__split_bufferINS_12basic_stringIcNS_11char_traitsIcEENS_9allocatorIcEEEERNS4_IS6_EEEC2EmmS8_, symObjAddr: 0x388C, symBinAddr: 0x100009FA8, symSize: 0xE0 }
  - { offsetInCU: 0xA1C8, offset: 0x1D93E, size: 0x8, addend: 0x0, symName: __ZNSt3__117__compressed_pairIPNS_12basic_stringIcNS_11char_traitsIcEENS_9allocatorIcEEEERNS4_IS6_EEEC1B8ue170006IDnS9_EEOT_OT0_, symObjAddr: 0x396C, symBinAddr: 0x10000A088, symSize: 0x3C }
  - { offsetInCU: 0xA21F, offset: 0x1D995, size: 0x8, addend: 0x0, symName: __ZNSt3__114__split_bufferINS_12basic_stringIcNS_11char_traitsIcEENS_9allocatorIcEEEERNS4_IS6_EEE7__allocB8ue170006Ev, symObjAddr: 0x39E8, symBinAddr: 0x10000A104, symSize: 0x28 }
  - { offsetInCU: 0xA244, offset: 0x1D9BA, size: 0x8, addend: 0x0, symName: __ZNSt3__114__split_bufferINS_12basic_stringIcNS_11char_traitsIcEENS_9allocatorIcEEEERNS4_IS6_EEE9__end_capB8ue170006Ev, symObjAddr: 0x3A10, symBinAddr: 0x10000A12C, symSize: 0x28 }
  - { offsetInCU: 0xA269, offset: 0x1D9DF, size: 0x8, addend: 0x0, symName: __ZNSt3__117__compressed_pairIPNS_12basic_stringIcNS_11char_traitsIcEENS_9allocatorIcEEEERNS4_IS6_EEEC2B8ue170006IDnS9_EEOT_OT0_, symObjAddr: 0x3A38, symBinAddr: 0x10000A154, symSize: 0x48 }
  - { offsetInCU: 0xA2C0, offset: 0x1DA36, size: 0x8, addend: 0x0, symName: __ZNSt3__122__compressed_pair_elemIRNS_9allocatorINS_12basic_stringIcNS_11char_traitsIcEENS1_IcEEEEEELi1ELb0EEC2B8ue170006IS8_vEEOT_, symObjAddr: 0x3A9C, symBinAddr: 0x10000A19C, symSize: 0x20 }
  - { offsetInCU: 0xA301, offset: 0x1DA77, size: 0x8, addend: 0x0, symName: __ZNSt3__19allocatorINS_12basic_stringIcNS_11char_traitsIcEENS0_IcEEEEE8allocateB8ue170006Em, symObjAddr: 0x3ABC, symBinAddr: 0x10000A1BC, symSize: 0x8C }
  - { offsetInCU: 0xA334, offset: 0x1DAAA, size: 0x8, addend: 0x0, symName: __ZNSt3__117__compressed_pairIPNS_12basic_stringIcNS_11char_traitsIcEENS_9allocatorIcEEEERNS4_IS6_EEE6secondB8ue170006Ev, symObjAddr: 0x3B48, symBinAddr: 0x10000A248, symSize: 0x28 }
  - { offsetInCU: 0xA358, offset: 0x1DACE, size: 0x8, addend: 0x0, symName: __ZNSt3__122__compressed_pair_elemIRNS_9allocatorINS_12basic_stringIcNS_11char_traitsIcEENS1_IcEEEEEELi1ELb0EE5__getB8ue170006Ev, symObjAddr: 0x3B70, symBinAddr: 0x10000A270, symSize: 0x18 }
  - { offsetInCU: 0xA37D, offset: 0x1DAF3, size: 0x8, addend: 0x0, symName: __ZNSt3__117__compressed_pairIPNS_12basic_stringIcNS_11char_traitsIcEENS_9allocatorIcEEEERNS4_IS6_EEE5firstB8ue170006Ev, symObjAddr: 0x3B88, symBinAddr: 0x10000A288, symSize: 0x24 }
  - { offsetInCU: 0xA3A2, offset: 0x1DB18, size: 0x8, addend: 0x0, symName: __ZNSt3__116reverse_iteratorIPNS_12basic_stringIcNS_11char_traitsIcEENS_9allocatorIcEEEEEC1B8ue170006ES7_, symObjAddr: 0x3DB4, symBinAddr: 0x10000A3E0, symSize: 0x34 }
  - { offsetInCU: 0xA3D8, offset: 0x1DB4E, size: 0x8, addend: 0x0, symName: __ZNKSt3__116reverse_iteratorIPNS_12basic_stringIcNS_11char_traitsIcEENS_9allocatorIcEEEEE4baseB8ue170006Ev, symObjAddr: 0x3DE8, symBinAddr: 0x10000A414, symSize: 0x18 }
  - { offsetInCU: 0xA3FD, offset: 0x1DB73, size: 0x8, addend: 0x0, symName: __ZNKSt3__16vectorINS_12basic_stringIcNS_11char_traitsIcEENS_9allocatorIcEEEENS4_IS6_EEE14__annotate_newB8ue170006Em, symObjAddr: 0x3E3C, symBinAddr: 0x10000A468, symSize: 0xC8 }
  - { offsetInCU: 0xA431, offset: 0x1DBA7, size: 0x8, addend: 0x0, symName: __ZNSt3__129_AllocatorDestroyRangeReverseINS_9allocatorINS_12basic_stringIcNS_11char_traitsIcEENS1_IcEEEEEENS_16reverse_iteratorIPS6_EEEC1B8ue170006ERS7_RSA_SD_, symObjAddr: 0x3F98, symBinAddr: 0x10000A57C, symSize: 0x44 }
  - { offsetInCU: 0xA486, offset: 0x1DBFC, size: 0x8, addend: 0x0, symName: __ZNKSt3__116reverse_iteratorIPNS_12basic_stringIcNS_11char_traitsIcEENS_9allocatorIcEEEEEdeB8ue170006Ev, symObjAddr: 0x4048, symBinAddr: 0x10000A62C, symSize: 0x28 }
  - { offsetInCU: 0xA4B8, offset: 0x1DC2E, size: 0x8, addend: 0x0, symName: __ZNSt3__116reverse_iteratorIPNS_12basic_stringIcNS_11char_traitsIcEENS_9allocatorIcEEEEEppB8ue170006Ev, symObjAddr: 0x4070, symBinAddr: 0x10000A654, symSize: 0x20 }
  - { offsetInCU: 0xA4DC, offset: 0x1DC52, size: 0x8, addend: 0x0, symName: __ZNSt3__128__exception_guard_exceptionsINS_29_AllocatorDestroyRangeReverseINS_9allocatorINS_12basic_stringIcNS_11char_traitsIcEENS2_IcEEEEEENS_16reverse_iteratorIPS7_EEEEE10__completeB8ue170006Ev, symObjAddr: 0x4090, symBinAddr: 0x10000A674, symSize: 0x1C }
  - { offsetInCU: 0xA501, offset: 0x1DC77, size: 0x8, addend: 0x0, symName: __ZNSt3__128__exception_guard_exceptionsINS_29_AllocatorDestroyRangeReverseINS_9allocatorINS_12basic_stringIcNS_11char_traitsIcEENS2_IcEEEEEENS_16reverse_iteratorIPS7_EEEEED1B8ue170006Ev, symObjAddr: 0x40AC, symBinAddr: 0x10000A690, symSize: 0x2C }
  - { offsetInCU: 0xA52A, offset: 0x1DCA0, size: 0x8, addend: 0x0, symName: __ZNSt3__128__exception_guard_exceptionsINS_29_AllocatorDestroyRangeReverseINS_9allocatorINS_12basic_stringIcNS_11char_traitsIcEENS2_IcEEEEEENS_16reverse_iteratorIPS7_EEEEEC1B8ue170006ESC_, symObjAddr: 0x40D8, symBinAddr: 0x10000A6BC, symSize: 0x34 }
  - { offsetInCU: 0xA562, offset: 0x1DCD8, size: 0x8, addend: 0x0, symName: __ZNSt3__128__exception_guard_exceptionsINS_29_AllocatorDestroyRangeReverseINS_9allocatorINS_12basic_stringIcNS_11char_traitsIcEENS2_IcEEEEEENS_16reverse_iteratorIPS7_EEEEEC2B8ue170006ESC_, symObjAddr: 0x410C, symBinAddr: 0x10000A6F0, symSize: 0x30 }
  - { offsetInCU: 0xA59A, offset: 0x1DD10, size: 0x8, addend: 0x0, symName: __ZNSt3__129_AllocatorDestroyRangeReverseINS_9allocatorINS_12basic_stringIcNS_11char_traitsIcEENS1_IcEEEEEENS_16reverse_iteratorIPS6_EEEC2B8ue170006ERS7_RSA_SD_, symObjAddr: 0x413C, symBinAddr: 0x10000A720, symSize: 0x38 }
  - { offsetInCU: 0xA5F5, offset: 0x1DD6B, size: 0x8, addend: 0x0, symName: __ZNSt3__119__to_address_helperINS_16reverse_iteratorIPNS_12basic_stringIcNS_11char_traitsIcEENS_9allocatorIcEEEEEEvE6__callB8ue170006ERKS9_, symObjAddr: 0x4174, symBinAddr: 0x10000A758, symSize: 0x4C }
  - { offsetInCU: 0xA618, offset: 0x1DD8E, size: 0x8, addend: 0x0, symName: __ZNKSt3__116reverse_iteratorIPNS_12basic_stringIcNS_11char_traitsIcEENS_9allocatorIcEEEEEptB8ue170006Ev, symObjAddr: 0x41C0, symBinAddr: 0x10000A7A4, symSize: 0x24 }
  - { offsetInCU: 0xA63D, offset: 0x1DDB3, size: 0x8, addend: 0x0, symName: __ZNSt3__128__exception_guard_exceptionsINS_29_AllocatorDestroyRangeReverseINS_9allocatorINS_12basic_stringIcNS_11char_traitsIcEENS2_IcEEEEEENS_16reverse_iteratorIPS7_EEEEED2B8ue170006Ev, symObjAddr: 0x41E4, symBinAddr: 0x10000A7C8, symSize: 0x48 }
  - { offsetInCU: 0xA666, offset: 0x1DDDC, size: 0x8, addend: 0x0, symName: __ZNKSt3__129_AllocatorDestroyRangeReverseINS_9allocatorINS_12basic_stringIcNS_11char_traitsIcEENS1_IcEEEEEENS_16reverse_iteratorIPS6_EEEclB8ue170006Ev, symObjAddr: 0x422C, symBinAddr: 0x10000A810, symSize: 0xB4 }
  - { offsetInCU: 0xA68C, offset: 0x1DE02, size: 0x8, addend: 0x0, symName: __ZNSt3__116reverse_iteratorINS0_IPNS_12basic_stringIcNS_11char_traitsIcEENS_9allocatorIcEEEEEEEC1B8ue170006ES8_, symObjAddr: 0x4350, symBinAddr: 0x10000A934, symSize: 0x3C }
  - { offsetInCU: 0xA6C3, offset: 0x1DE39, size: 0x8, addend: 0x0, symName: __ZNSt3__116reverse_iteratorINS0_IPNS_12basic_stringIcNS_11char_traitsIcEENS_9allocatorIcEEEEEEEppB8ue170006Ev, symObjAddr: 0x443C, symBinAddr: 0x10000A9F4, symSize: 0x30 }
  - { offsetInCU: 0xA6E7, offset: 0x1DE5D, size: 0x8, addend: 0x0, symName: __ZNKSt3__116reverse_iteratorINS0_IPNS_12basic_stringIcNS_11char_traitsIcEENS_9allocatorIcEEEEEEE4baseB8ue170006Ev, symObjAddr: 0x446C, symBinAddr: 0x10000AA24, symSize: 0x24 }
  - { offsetInCU: 0xA711, offset: 0x1DE87, size: 0x8, addend: 0x0, symName: __ZNSt3__119__to_address_helperINS_16reverse_iteratorINS1_IPNS_12basic_stringIcNS_11char_traitsIcEENS_9allocatorIcEEEEEEEEvE6__callB8ue170006ERKSA_, symObjAddr: 0x44B8, symBinAddr: 0x10000AA48, symSize: 0x4C }
  - { offsetInCU: 0xA734, offset: 0x1DEAA, size: 0x8, addend: 0x0, symName: __ZNKSt3__116reverse_iteratorINS0_IPNS_12basic_stringIcNS_11char_traitsIcEENS_9allocatorIcEEEEEEEptB8ue170006Ev, symObjAddr: 0x4504, symBinAddr: 0x10000AA94, symSize: 0x24 }
  - { offsetInCU: 0xA759, offset: 0x1DECF, size: 0x8, addend: 0x0, symName: __ZNKSt3__116reverse_iteratorINS0_IPNS_12basic_stringIcNS_11char_traitsIcEENS_9allocatorIcEEEEEEEdeB8ue170006Ev, symObjAddr: 0x4528, symBinAddr: 0x10000AAB8, symSize: 0x34 }
  - { offsetInCU: 0xA78B, offset: 0x1DF01, size: 0x8, addend: 0x0, symName: __ZNSt3__116reverse_iteratorIPNS_12basic_stringIcNS_11char_traitsIcEENS_9allocatorIcEEEEEmmB8ue170006Ev, symObjAddr: 0x455C, symBinAddr: 0x10000AAEC, symSize: 0x20 }
  - { offsetInCU: 0xA7B0, offset: 0x1DF26, size: 0x8, addend: 0x0, symName: __ZNSt3__116reverse_iteratorINS0_IPNS_12basic_stringIcNS_11char_traitsIcEENS_9allocatorIcEEEEEEEC2B8ue170006ES8_, symObjAddr: 0x457C, symBinAddr: 0x10000AB0C, symSize: 0x2C }
  - { offsetInCU: 0xA7E7, offset: 0x1DF5D, size: 0x8, addend: 0x0, symName: __ZNSt3__116reverse_iteratorIPNS_12basic_stringIcNS_11char_traitsIcEENS_9allocatorIcEEEEEC2B8ue170006ES7_, symObjAddr: 0x45A8, symBinAddr: 0x10000AB38, symSize: 0x28 }
  - { offsetInCU: 0xA81E, offset: 0x1DF94, size: 0x8, addend: 0x0, symName: __ZNSt3__114__split_bufferINS_12basic_stringIcNS_11char_traitsIcEENS_9allocatorIcEEEERNS4_IS6_EEED2Ev, symObjAddr: 0x45D0, symBinAddr: 0x10000AB60, symSize: 0x80 }
  - { offsetInCU: 0xA849, offset: 0x1DFBF, size: 0x8, addend: 0x0, symName: __ZNSt3__114__split_bufferINS_12basic_stringIcNS_11char_traitsIcEENS_9allocatorIcEEEERNS4_IS6_EEE5clearB8ue170006Ev, symObjAddr: 0x4650, symBinAddr: 0x10000ABE0, symSize: 0x28 }
  - { offsetInCU: 0xA86E, offset: 0x1DFE4, size: 0x8, addend: 0x0, symName: __ZNKSt3__114__split_bufferINS_12basic_stringIcNS_11char_traitsIcEENS_9allocatorIcEEEERNS4_IS6_EEE8capacityB8ue170006Ev, symObjAddr: 0x46AC, symBinAddr: 0x10000AC08, symSize: 0x40 }
  - { offsetInCU: 0xA893, offset: 0x1E009, size: 0x8, addend: 0x0, symName: __ZNSt3__114__split_bufferINS_12basic_stringIcNS_11char_traitsIcEENS_9allocatorIcEEEERNS4_IS6_EEE17__destruct_at_endB8ue170006EPS6_, symObjAddr: 0x46EC, symBinAddr: 0x10000AC48, symSize: 0x2C }
  - { offsetInCU: 0xA8C5, offset: 0x1E03B, size: 0x8, addend: 0x0, symName: __ZNSt3__114__split_bufferINS_12basic_stringIcNS_11char_traitsIcEENS_9allocatorIcEEEERNS4_IS6_EEE17__destruct_at_endB8ue170006EPS6_NS_17integral_constantIbLb0EEE, symObjAddr: 0x4718, symBinAddr: 0x10000AC74, symSize: 0x94 }
  - { offsetInCU: 0xA906, offset: 0x1E07C, size: 0x8, addend: 0x0, symName: __ZNKSt3__114__split_bufferINS_12basic_stringIcNS_11char_traitsIcEENS_9allocatorIcEEEERNS4_IS6_EEE9__end_capB8ue170006Ev, symObjAddr: 0x489C, symBinAddr: 0x10000AD08, symSize: 0x28 }
  - { offsetInCU: 0xA92B, offset: 0x1E0A1, size: 0x8, addend: 0x0, symName: __ZNKSt3__117__compressed_pairIPNS_12basic_stringIcNS_11char_traitsIcEENS_9allocatorIcEEEERNS4_IS6_EEE5firstB8ue170006Ev, symObjAddr: 0x48C4, symBinAddr: 0x10000AD30, symSize: 0x24 }
  - { offsetInCU: 0xA950, offset: 0x1E0C6, size: 0x8, addend: 0x0, symName: __ZNKSt3__112basic_stringIcNS_11char_traitsIcEENS_9allocatorIcEEE15__get_long_sizeB8ue170006Ev, symObjAddr: 0x48E8, symBinAddr: 0x10000AD54, symSize: 0x28 }
  - { offsetInCU: 0xA975, offset: 0x1E0EB, size: 0x8, addend: 0x0, symName: __ZNKSt3__112basic_stringIcNS_11char_traitsIcEENS_9allocatorIcEEE16__get_short_sizeB8ue170006Ev, symObjAddr: 0x4910, symBinAddr: 0x10000AD7C, symSize: 0x34 }
  - { offsetInCU: 0xA99A, offset: 0x1E110, size: 0x8, addend: 0x0, symName: __ZNSt3__115basic_streambufIcNS_11char_traitsIcEEE5sgetcB8ue170006Ev, symObjAddr: 0x4944, symBinAddr: 0x10000ADB0, symSize: 0x70 }
  - { offsetInCU: 0xA9BF, offset: 0x1E135, size: 0x8, addend: 0x0, symName: __ZNKSt3__15ctypeIcE2isB8ue170006Ejc, symObjAddr: 0x49B4, symBinAddr: 0x10000AE20, symSize: 0x7C }
  - { offsetInCU: 0xAA01, offset: 0x1E177, size: 0x8, addend: 0x0, symName: __Z7isasciii, symObjAddr: 0x4A30, symBinAddr: 0x10000AE9C, symSize: 0x24 }
  - { offsetInCU: 0xAA2E, offset: 0x1E1A4, size: 0x8, addend: 0x0, symName: __ZNKSt3__19basic_iosIcNS_11char_traitsIcEEE4failB8ue170006Ev, symObjAddr: 0x4A54, symBinAddr: 0x10000AEC0, symSize: 0x28 }
  - { offsetInCU: 0xAA53, offset: 0x1E1C9, size: 0x8, addend: 0x0, symName: __ZNKSt3__18ios_base4failB8ue170006Ev, symObjAddr: 0x4A7C, symBinAddr: 0x10000AEE8, symSize: 0x28 }
...
