---
triple:          'arm64-apple-darwin'
binary-path:     driver
relocations:
  - { offsetInCU: 0x7472, offset: 0x7472, size: 0x8, addend: 0x0, symName: __ZNSt3__1eqB7v160006IcNS_11char_traitsIcEENS_9allocatorIcEEEEbRKNS_12basic_stringIT_T0_T1_EEPKS6_, symObjAddr: 0xFE0, symBinAddr: 0x100001C74, symSize: 0xAC }
  - { offsetInCU: 0x7CE5, offset: 0x7CE5, size: 0x8, addend: 0x0, symName: __ZNSt3__1neB7v160006IcNS_11char_traitsIcEENS_9allocatorIcEEEEbRKNS_12basic_stringIT_T0_T1_EEPKS6_, symObjAddr: 0x12A4, symBinAddr: 0x100001F38, symSize: 0x34 }
  - { offsetInCU: 0x7D3D, offset: 0x7D3D, size: 0x8, addend: 0x0, symName: __ZNSt3__118__debug_db_erase_cB7v160006INS_6vectorINS_12basic_stringIcNS_11char_traitsIcEENS_9allocatorIcEEEENS5_IS7_EEEEEEvPT_, symObjAddr: 0x17D0, symBinAddr: 0x100002464, symSize: 0x10 }
  - { offsetInCU: 0x7D6E, offset: 0x7D6E, size: 0x8, addend: 0x0, symName: __ZNSt3__112__to_addressB7v160006INS_12basic_stringIcNS_11char_traitsIcEENS_9allocatorIcEEEEEEPT_S8_, symObjAddr: 0x1914, symBinAddr: 0x1000025A8, symSize: 0x14 }
  - { offsetInCU: 0x7DA3, offset: 0x7DA3, size: 0x8, addend: 0x0, symName: __ZNSt3__119__libcpp_deallocateB7v160006EPvmm, symObjAddr: 0x1A4C, symBinAddr: 0x1000026E0, symSize: 0x60 }
  - { offsetInCU: 0x7E08, offset: 0x7E08, size: 0x8, addend: 0x0, symName: __ZNSt3__124__is_overaligned_for_newB7v160006Em, symObjAddr: 0x1AAC, symBinAddr: 0x100002740, symSize: 0x20 }
  - { offsetInCU: 0x7E36, offset: 0x7E36, size: 0x8, addend: 0x0, symName: __ZNSt3__127__do_deallocate_handle_sizeB7v160006IJSt11align_val_tEEEvPvmDpT_, symObjAddr: 0x1ACC, symBinAddr: 0x100002760, symSize: 0x30 }
  - { offsetInCU: 0x7E89, offset: 0x7E89, size: 0x8, addend: 0x0, symName: __ZNSt3__127__do_deallocate_handle_sizeB7v160006IJEEEvPvmDpT_, symObjAddr: 0x1AFC, symBinAddr: 0x100002790, symSize: 0x28 }
  - { offsetInCU: 0x7EC7, offset: 0x7EC7, size: 0x8, addend: 0x0, symName: __ZNSt3__124__libcpp_operator_deleteB7v160006IJPvSt11align_val_tEEEvDpT_, symObjAddr: 0x1B24, symBinAddr: 0x1000027B8, symSize: 0x2C }
  - { offsetInCU: 0x7F10, offset: 0x7F10, size: 0x8, addend: 0x0, symName: __ZNSt3__124__libcpp_operator_deleteB7v160006IJPvEEEvDpT_, symObjAddr: 0x1B50, symBinAddr: 0x1000027E4, symSize: 0x24 }
  - { offsetInCU: 0x7F45, offset: 0x7F45, size: 0x8, addend: 0x0, symName: __ZNSt3__119__debug_db_insert_cB7v160006INS_12basic_stringIcNS_11char_traitsIcEENS_9allocatorIcEEEEEEvPT_, symObjAddr: 0x1CDC, symBinAddr: 0x100002970, symSize: 0x10 }
  - { offsetInCU: 0x7F76, offset: 0x7F76, size: 0x8, addend: 0x0, symName: __ZNSt3__118__constexpr_strlenB7v160006EPKc, symObjAddr: 0x1DA8, symBinAddr: 0x100002A3C, symSize: 0x24 }
  - { offsetInCU: 0x7FA2, offset: 0x7FA2, size: 0x8, addend: 0x0, symName: __ZNSt3__119__debug_db_insert_cB7v160006INS_6vectorINS_12basic_stringIcNS_11char_traitsIcEENS_9allocatorIcEEEENS5_IS7_EEEEEEvPT_, symObjAddr: 0x1F80, symBinAddr: 0x100002C14, symSize: 0x10 }
  - { offsetInCU: 0x7FD3, offset: 0x7FD3, size: 0x8, addend: 0x0, symName: __ZNSt3__119__debug_db_insert_cB7v160006INS_13unordered_setINS_12basic_stringIcNS_11char_traitsIcEENS_9allocatorIcEEEENS_4hashIS7_EENS_8equal_toIS7_EENS5_IS7_EEEEEEvPT_, symObjAddr: 0x2118, symBinAddr: 0x100002DAC, symSize: 0x10 }
  - { offsetInCU: 0x8004, offset: 0x8004, size: 0x8, addend: 0x0, symName: __ZNSt3__116__constrain_hashB7v160006Emm, symObjAddr: 0x2D78, symBinAddr: 0x100003A0C, symSize: 0x98 }
  - { offsetInCU: 0x803E, offset: 0x803E, size: 0x8, addend: 0x0, symName: __ZNSt3__13maxB7v160006ImEERKT_S3_S3_, symObjAddr: 0x3098, symBinAddr: 0x100003D2C, symSize: 0x2C }
  - { offsetInCU: 0x8081, offset: 0x8081, size: 0x8, addend: 0x0, symName: __ZNSt3__116__is_hash_power2B7v160006Em, symObjAddr: 0x30C4, symBinAddr: 0x100003D58, symSize: 0x50 }
  - { offsetInCU: 0x80AD, offset: 0x80AD, size: 0x8, addend: 0x0, symName: __ZNSt3__116__do_string_hashB7v160006IPKcEEmT_S3_, symObjAddr: 0x32E4, symBinAddr: 0x100003F78, symSize: 0x3C }
  - { offsetInCU: 0x80F3, offset: 0x80F3, size: 0x8, addend: 0x0, symName: __ZNSt3__110__loadwordB7v160006ImEET_PKv, symObjAddr: 0x3D00, symBinAddr: 0x100004994, symSize: 0x20 }
  - { offsetInCU: 0x8136, offset: 0x8136, size: 0x8, addend: 0x0, symName: __ZNSt3__14swapB7v160006ImEENS_9enable_ifIXaasr21is_move_constructibleIT_EE5valuesr18is_move_assignableIS2_EE5valueEvE4typeERS2_S5_, symObjAddr: 0x3EBC, symBinAddr: 0x100004B50, symSize: 0x3C }
  - { offsetInCU: 0x8187, offset: 0x8187, size: 0x8, addend: 0x0, symName: __ZNSt3__110__loadwordB7v160006IjEET_PKv, symObjAddr: 0x3F4C, symBinAddr: 0x100004BE0, symSize: 0x20 }
  - { offsetInCU: 0x81CA, offset: 0x81CA, size: 0x8, addend: 0x0, symName: __ZNSt3__112__to_addressB7v160006IKcEEPT_S3_, symObjAddr: 0x40B4, symBinAddr: 0x100004D48, symSize: 0x14 }
  - { offsetInCU: 0x8232, offset: 0x8232, size: 0x8, addend: 0x0, symName: __ZNSt3__1eqB7v160006INS_9allocatorIcEEEEbRKNS_12basic_stringIcNS_11char_traitsIcEET_EES9_, symObjAddr: 0x42B0, symBinAddr: 0x100004F44, symSize: 0x148 }
  - { offsetInCU: 0x82A5, offset: 0x82A5, size: 0x8, addend: 0x0, symName: __ZNSt3__118__constexpr_memcmpB7v160006IcEEiPKT_S3_m, symObjAddr: 0x4464, symBinAddr: 0x1000050F8, symSize: 0x34 }
  - { offsetInCU: 0x8347, offset: 0x8347, size: 0x8, addend: 0x0, symName: __ZNSt3__117__libcpp_allocateB7v160006Emm, symObjAddr: 0x46DC, symBinAddr: 0x100005370, symSize: 0x60 }
  - { offsetInCU: 0x83A1, offset: 0x83A1, size: 0x8, addend: 0x0, symName: __ZNSt3__121__libcpp_operator_newB7v160006IJmSt11align_val_tEEEPvDpT_, symObjAddr: 0x4754, symBinAddr: 0x1000053E8, symSize: 0x2C }
  - { offsetInCU: 0x83EE, offset: 0x83EE, size: 0x8, addend: 0x0, symName: __ZNSt3__121__libcpp_operator_newB7v160006IJmEEEPvDpT_, symObjAddr: 0x4780, symBinAddr: 0x100005414, symSize: 0x24 }
  - { offsetInCU: 0x8427, offset: 0x8427, size: 0x8, addend: 0x0, symName: __ZNSt3__116__next_hash_pow2B7v160006Em, symObjAddr: 0x4E04, symBinAddr: 0x100005A98, symSize: 0x6C }
  - { offsetInCU: 0x8453, offset: 0x8453, size: 0x8, addend: 0x0, symName: __ZNSt3__125__debug_db_invalidate_allB7v160006INS_12__hash_tableINS_12basic_stringIcNS_11char_traitsIcEENS_9allocatorIcEEEENS_4hashIS7_EENS_8equal_toIS7_EENS5_IS7_EEEEEEvPT_, symObjAddr: 0x4E70, symBinAddr: 0x100005B04, symSize: 0x10 }
  - { offsetInCU: 0x84A0, offset: 0x84A0, size: 0x8, addend: 0x0, symName: __ZNSt3__112__libcpp_clzB7v160006Em, symObjAddr: 0x51BC, symBinAddr: 0x100005E50, symSize: 0x1C }
  - { offsetInCU: 0x84CC, offset: 0x84CC, size: 0x8, addend: 0x0, symName: __ZNSt3__13maxB7v160006ImNS_6__lessImmEEEERKT_S5_S5_T0_, symObjAddr: 0x51D8, symBinAddr: 0x100005E6C, symSize: 0x54 }
  - { offsetInCU: 0x8561, offset: 0x8561, size: 0x8, addend: 0x0, symName: __ZNSt3__118__debug_db_erase_cB7v160006INS_12__hash_tableINS_12basic_stringIcNS_11char_traitsIcEENS_9allocatorIcEEEENS_4hashIS7_EENS_8equal_toIS7_EENS5_IS7_EEEEEEvPT_, symObjAddr: 0x5608, symBinAddr: 0x10000629C, symSize: 0x10 }
  - { offsetInCU: 0x8592, offset: 0x8592, size: 0x8, addend: 0x0, symName: __ZNSt3__1neB7v160006ERKNS_21__hash_const_iteratorIPNS_11__hash_nodeINS_12basic_stringIcNS_11char_traitsIcEENS_9allocatorIcEEEEPvEEEESD_, symObjAddr: 0x5770, symBinAddr: 0x100006404, symSize: 0x34 }
  - { offsetInCU: 0x85CF, offset: 0x85CF, size: 0x8, addend: 0x0, symName: __ZNSt3__1eqB7v160006ERKNS_21__hash_const_iteratorIPNS_11__hash_nodeINS_12basic_stringIcNS_11char_traitsIcEENS_9allocatorIcEEEEPvEEEESD_, symObjAddr: 0x5990, symBinAddr: 0x100006624, symSize: 0x30 }
  - { offsetInCU: 0x860C, offset: 0x860C, size: 0x8, addend: 0x0, symName: __ZNSt3__13minB7v160006ImEERKT_S3_S3_, symObjAddr: 0x6098, symBinAddr: 0x100006D2C, symSize: 0x2C }
  - { offsetInCU: 0x8839, offset: 0x8839, size: 0x8, addend: 0x0, symName: __ZNSt3__13minB7v160006ImNS_6__lessImmEEEERKT_S5_S5_T0_, symObjAddr: 0x6124, symBinAddr: 0x100006DB8, symSize: 0x54 }
  - { offsetInCU: 0x8893, offset: 0x8893, size: 0x8, addend: 0x0, symName: __ZNSt3__120__throw_length_errorB7v160006EPKc, symObjAddr: 0x61D0, symBinAddr: 0x100006E64, symSize: 0x64 }
  - { offsetInCU: 0x88BB, offset: 0x88BB, size: 0x8, addend: 0x0, symName: __ZNSt3__119__allocate_at_leastB7v160006INS_9allocatorINS_12basic_stringIcNS_11char_traitsIcEENS1_IcEEEEEEEENS_19__allocation_resultINS_16allocator_traitsIT_E7pointerEEERSA_m, symObjAddr: 0x63D0, symBinAddr: 0x100007064, symSize: 0x40 }
  - { offsetInCU: 0x88FE, offset: 0x88FE, size: 0x8, addend: 0x0, symName: __ZNSt3__142__uninitialized_allocator_move_if_noexceptB7v160006INS_9allocatorINS_12basic_stringIcNS_11char_traitsIcEENS1_IcEEEEEENS_16reverse_iteratorIPS6_EESA_SA_EET2_RT_T0_T1_SB_, symObjAddr: 0x6588, symBinAddr: 0x10000721C, symSize: 0x12C }
  - { offsetInCU: 0x899E, offset: 0x899E, size: 0x8, addend: 0x0, symName: __ZNSt3__14swapB7v160006IPNS_12basic_stringIcNS_11char_traitsIcEENS_9allocatorIcEEEEEENS_9enable_ifIXaasr21is_move_constructibleIT_EE5valuesr18is_move_assignableIS9_EE5valueEvE4typeERS9_SC_, symObjAddr: 0x6700, symBinAddr: 0x100007394, symSize: 0x3C }
  - { offsetInCU: 0x89EF, offset: 0x89EF, size: 0x8, addend: 0x0, symName: __ZNSt3__125__debug_db_invalidate_allB7v160006INS_6vectorINS_12basic_stringIcNS_11char_traitsIcEENS_9allocatorIcEEEENS5_IS7_EEEEEEvPT_, symObjAddr: 0x6804, symBinAddr: 0x100007498, symSize: 0x10 }
  - { offsetInCU: 0x8A20, offset: 0x8A20, size: 0x8, addend: 0x0, symName: __ZNSt3__122__make_exception_guardB7v160006INS_29_AllocatorDestroyRangeReverseINS_9allocatorINS_12basic_stringIcNS_11char_traitsIcEENS2_IcEEEEEENS_16reverse_iteratorIPS7_EEEEEENS_28__exception_guard_exceptionsIT_EESE_, symObjAddr: 0x6814, symBinAddr: 0x1000074A8, symSize: 0x4C }
  - { offsetInCU: 0x8A56, offset: 0x8A56, size: 0x8, addend: 0x0, symName: __ZNSt3__1neB7v160006IPNS_12basic_stringIcNS_11char_traitsIcEENS_9allocatorIcEEEES7_EEbRKNS_16reverse_iteratorIT_EERKNS8_IT0_EE, symObjAddr: 0x68A4, symBinAddr: 0x100007538, symSize: 0x48 }
  - { offsetInCU: 0x8AA2, offset: 0x8AA2, size: 0x8, addend: 0x0, symName: __ZNSt3__112__to_addressB7v160006INS_16reverse_iteratorIPNS_12basic_stringIcNS_11char_traitsIcEENS_9allocatorIcEEEEEEvEENS_5decayIDTclsr19__to_address_helperIT_EE6__callclsr3stdE7declvalIRKSB_EEEEE4typeESD_, symObjAddr: 0x6920, symBinAddr: 0x1000075B4, symSize: 0x24 }
  - { offsetInCU: 0x8AD8, offset: 0x8AD8, size: 0x8, addend: 0x0, symName: __ZNSt3__115__debug_db_swapB7v160006INS_12basic_stringIcNS_11char_traitsIcEENS_9allocatorIcEEEEEEvPT_S8_, symObjAddr: 0x6B98, symBinAddr: 0x10000782C, symSize: 0x14 }
  - { offsetInCU: 0x8B40, offset: 0x8B40, size: 0x8, addend: 0x0, symName: __ZNSt3__119__allocator_destroyB7v160006INS_9allocatorINS_12basic_stringIcNS_11char_traitsIcEENS1_IcEEEEEENS_16reverse_iteratorINS8_IPS6_EEEESB_EEvRT_T0_T1_, symObjAddr: 0x6D44, symBinAddr: 0x1000079D8, symSize: 0x70 }
  - { offsetInCU: 0x8BA5, offset: 0x8BA5, size: 0x8, addend: 0x0, symName: __ZNSt3__1neB7v160006INS_16reverse_iteratorIPNS_12basic_stringIcNS_11char_traitsIcEENS_9allocatorIcEEEEEES9_EEbRKNS1_IT_EERKNS1_IT0_EE, symObjAddr: 0x6DF0, symBinAddr: 0x100007A84, symSize: 0x60 }
  - { offsetInCU: 0x8BF1, offset: 0x8BF1, size: 0x8, addend: 0x0, symName: __ZNSt3__112__to_addressB7v160006INS_16reverse_iteratorINS1_IPNS_12basic_stringIcNS_11char_traitsIcEENS_9allocatorIcEEEEEEEEvEENS_5decayIDTclsr19__to_address_helperIT_EE6__callclsr3stdE7declvalIRKSC_EEEEE4typeESE_, symObjAddr: 0x6E50, symBinAddr: 0x100007AE4, symSize: 0x24 }
  - { offsetInCU: 0x8F3B, offset: 0x8F3B, size: 0x8, addend: 0x0, symName: __ZSt28__throw_bad_array_new_lengthB7v160006v, symObjAddr: 0x46A8, symBinAddr: 0x10000533C, symSize: 0x34 }
  - { offsetInCU: 0x9723, offset: 0x9723, size: 0x8, addend: 0x0, symName: __ZNSt3__16vectorINS_12basic_stringIcNS_11char_traitsIcEENS_9allocatorIcEEEENS4_IS6_EEE26__swap_out_circular_bufferERNS_14__split_bufferIS6_RS7_EE, symObjAddr: 0x5ED8, symBinAddr: 0x100006B6C, symSize: 0x118 }
  - { offsetInCU: 0xBB1B, offset: 0xBB1B, size: 0x8, addend: 0x0, symName: __ZN11QueryParserC2ERNSt3__112basic_stringIcNS0_11char_traitsIcEENS0_9allocatorIcEEEE, symObjAddr: 0x0, symBinAddr: 0x100000C94, symSize: 0x34 }
  - { offsetInCU: 0xBB53, offset: 0xBB53, size: 0x8, addend: 0x0, symName: __ZN11QueryParserC1ERNSt3__112basic_stringIcNS0_11char_traitsIcEENS0_9allocatorIcEEEE, symObjAddr: 0x34, symBinAddr: 0x100000CC8, symSize: 0x34 }
  - { offsetInCU: 0xBB8B, offset: 0xBB8B, size: 0x8, addend: 0x0, symName: __ZN11QueryParser13FindNextTokenEv, symObjAddr: 0x68, symBinAddr: 0x100000CFC, symSize: 0x2C }
  - { offsetInCU: 0xBBB1, offset: 0xBBB1, size: 0x8, addend: 0x0, symName: __ZN11QueryParser14FindConstraintEv, symObjAddr: 0x94, symBinAddr: 0x100000D28, symSize: 0x10C }
  - { offsetInCU: 0xBBF9, offset: 0xBBF9, size: 0x8, addend: 0x0, symName: __ZN11QueryParser18FindBaseConstraintEv, symObjAddr: 0x1A0, symBinAddr: 0x100000E34, symSize: 0x10C }
  - { offsetInCU: 0xBC41, offset: 0xBC41, size: 0x8, addend: 0x0, symName: __ZN11QueryParser8FindOrOpEv, symObjAddr: 0x2AC, symBinAddr: 0x100000F40, symSize: 0x1D8 }
  - { offsetInCU: 0xBC6C, offset: 0xBC6C, size: 0x8, addend: 0x0, symName: __ZNSt3__112basic_stringIcNS_11char_traitsIcEENS_9allocatorIcEEEC1B7v160006IDnEEPKc, symObjAddr: 0x484, symBinAddr: 0x100001118, symSize: 0x34 }
  - { offsetInCU: 0xBCA8, offset: 0xBCA8, size: 0x8, addend: 0x0, symName: __ZN11QueryParser20FindSimpleConstraintEv, symObjAddr: 0x4B8, symBinAddr: 0x10000114C, symSize: 0x950 }
  - { offsetInCU: 0xBD2C, offset: 0xBD2C, size: 0x8, addend: 0x0, symName: __ZN11QueryParser9FindAndOpEv, symObjAddr: 0xE08, symBinAddr: 0x100001A9C, symSize: 0x1D8 }
  - { offsetInCU: 0xBD52, offset: 0xBD52, size: 0x8, addend: 0x0, symName: __ZN11QueryParser10FindPhraseEv, symObjAddr: 0x108C, symBinAddr: 0x100001D20, symSize: 0x1B0 }
  - { offsetInCU: 0xBDA9, offset: 0xBDA9, size: 0x8, addend: 0x0, symName: __ZNSt3__16vectorINS_12basic_stringIcNS_11char_traitsIcEENS_9allocatorIcEEEENS4_IS6_EEEC1B7v160006Ev, symObjAddr: 0x123C, symBinAddr: 0x100001ED0, symSize: 0x2C }
  - { offsetInCU: 0xBE2C, offset: 0xBE2C, size: 0x8, addend: 0x0, symName: __ZNSt3__113unordered_setINS_12basic_stringIcNS_11char_traitsIcEENS_9allocatorIcEEEENS_4hashIS6_EENS_8equal_toIS6_EENS4_IS6_EEEC1ESt16initializer_listIS6_E, symObjAddr: 0x1268, symBinAddr: 0x100001EFC, symSize: 0x3C }
  - { offsetInCU: 0xBE65, offset: 0xBE65, size: 0x8, addend: 0x0, symName: __ZNKSt3__113unordered_setINS_12basic_stringIcNS_11char_traitsIcEENS_9allocatorIcEEEENS_4hashIS6_EENS_8equal_toIS6_EENS4_IS6_EEE5countB7v160006ERKS6_, symObjAddr: 0x12D8, symBinAddr: 0x100001F6C, symSize: 0x2C }
  - { offsetInCU: 0xBE98, offset: 0xBE98, size: 0x8, addend: 0x0, symName: __ZNKSt3__112basic_stringIcNS_11char_traitsIcEENS_9allocatorIcEEE5emptyB7v160006Ev, symObjAddr: 0x1304, symBinAddr: 0x100001F98, symSize: 0x30 }
  - { offsetInCU: 0xBEBB, offset: 0xBEBB, size: 0x8, addend: 0x0, symName: __ZNSt3__16vectorINS_12basic_stringIcNS_11char_traitsIcEENS_9allocatorIcEEEENS4_IS6_EEE9push_backB7v160006ERKS6_, symObjAddr: 0x1334, symBinAddr: 0x100001FC8, symSize: 0x6C }
  - { offsetInCU: 0xBEF0, offset: 0xBEF0, size: 0x8, addend: 0x0, symName: __ZNSt3__113unordered_setINS_12basic_stringIcNS_11char_traitsIcEENS_9allocatorIcEEEENS_4hashIS6_EENS_8equal_toIS6_EENS4_IS6_EEED1B7v160006Ev, symObjAddr: 0x13A0, symBinAddr: 0x100002034, symSize: 0x2C }
  - { offsetInCU: 0xBF18, offset: 0xBF18, size: 0x8, addend: 0x0, symName: __ZNSt3__16vectorINS_12basic_stringIcNS_11char_traitsIcEENS_9allocatorIcEEEENS4_IS6_EEED1B7v160006Ev, symObjAddr: 0x13CC, symBinAddr: 0x100002060, symSize: 0x2C }
  - { offsetInCU: 0xBF40, offset: 0xBF40, size: 0x8, addend: 0x0, symName: __ZN11QueryParser20FindNestedConstraintEv, symObjAddr: 0x13F8, symBinAddr: 0x10000208C, symSize: 0x1A0 }
  - { offsetInCU: 0xBF74, offset: 0xBF74, size: 0x8, addend: 0x0, symName: __ZN11QueryParser5ParseEv, symObjAddr: 0x1598, symBinAddr: 0x10000222C, symSize: 0x24 }
  - { offsetInCU: 0xBF9A, offset: 0xBF9A, size: 0x8, addend: 0x0, symName: __ZNSt3__16vectorINS_12basic_stringIcNS_11char_traitsIcEENS_9allocatorIcEEEENS4_IS6_EEED2B7v160006Ev, symObjAddr: 0x15BC, symBinAddr: 0x100002250, symSize: 0x44 }
  - { offsetInCU: 0xBFC2, offset: 0xBFC2, size: 0x8, addend: 0x0, symName: __ZNSt3__16vectorINS_12basic_stringIcNS_11char_traitsIcEENS_9allocatorIcEEEENS4_IS6_EEE16__destroy_vectorC1ERS8_, symObjAddr: 0x1600, symBinAddr: 0x100002294, symSize: 0x34 }
  - { offsetInCU: 0xBFFA, offset: 0xBFFA, size: 0x8, addend: 0x0, symName: __ZNSt3__16vectorINS_12basic_stringIcNS_11char_traitsIcEENS_9allocatorIcEEEENS4_IS6_EEE16__destroy_vectorclB7v160006Ev, symObjAddr: 0x1640, symBinAddr: 0x1000022D4, symSize: 0x9C }
  - { offsetInCU: 0xC01E, offset: 0xC01E, size: 0x8, addend: 0x0, symName: __ZNSt3__16vectorINS_12basic_stringIcNS_11char_traitsIcEENS_9allocatorIcEEEENS4_IS6_EEE16__destroy_vectorC2ERS8_, symObjAddr: 0x16DC, symBinAddr: 0x100002370, symSize: 0x20 }
  - { offsetInCU: 0xC055, offset: 0xC055, size: 0x8, addend: 0x0, symName: __ZNKSt3__16vectorINS_12basic_stringIcNS_11char_traitsIcEENS_9allocatorIcEEEENS4_IS6_EEE17__annotate_deleteB7v160006Ev, symObjAddr: 0x16FC, symBinAddr: 0x100002390, symSize: 0xD4 }
  - { offsetInCU: 0xC079, offset: 0xC079, size: 0x8, addend: 0x0, symName: __ZNSt3__16vectorINS_12basic_stringIcNS_11char_traitsIcEENS_9allocatorIcEEEENS4_IS6_EEE7__clearB7v160006Ev, symObjAddr: 0x17E0, symBinAddr: 0x100002474, symSize: 0x28 }
  - { offsetInCU: 0xC09D, offset: 0xC09D, size: 0x8, addend: 0x0, symName: __ZNSt3__116allocator_traitsINS_9allocatorINS_12basic_stringIcNS_11char_traitsIcEENS1_IcEEEEEEE10deallocateB7v160006ERS7_PS6_m, symObjAddr: 0x1808, symBinAddr: 0x10000249C, symSize: 0x34 }
  - { offsetInCU: 0xC0DF, offset: 0xC0DF, size: 0x8, addend: 0x0, symName: __ZNSt3__16vectorINS_12basic_stringIcNS_11char_traitsIcEENS_9allocatorIcEEEENS4_IS6_EEE7__allocB7v160006Ev, symObjAddr: 0x183C, symBinAddr: 0x1000024D0, symSize: 0x28 }
  - { offsetInCU: 0xC103, offset: 0xC103, size: 0x8, addend: 0x0, symName: __ZNKSt3__16vectorINS_12basic_stringIcNS_11char_traitsIcEENS_9allocatorIcEEEENS4_IS6_EEE8capacityB7v160006Ev, symObjAddr: 0x1864, symBinAddr: 0x1000024F8, symSize: 0x40 }
  - { offsetInCU: 0xC127, offset: 0xC127, size: 0x8, addend: 0x0, symName: __ZNKSt3__16vectorINS_12basic_stringIcNS_11char_traitsIcEENS_9allocatorIcEEEENS4_IS6_EEE31__annotate_contiguous_containerB7v160006EPKvSA_SA_SA_, symObjAddr: 0x18A4, symBinAddr: 0x100002538, symSize: 0x20 }
  - { offsetInCU: 0xC17C, offset: 0xC17C, size: 0x8, addend: 0x0, symName: __ZNKSt3__16vectorINS_12basic_stringIcNS_11char_traitsIcEENS_9allocatorIcEEEENS4_IS6_EEE4dataB7v160006Ev, symObjAddr: 0x18C4, symBinAddr: 0x100002558, symSize: 0x28 }
  - { offsetInCU: 0xC1A0, offset: 0xC1A0, size: 0x8, addend: 0x0, symName: __ZNKSt3__16vectorINS_12basic_stringIcNS_11char_traitsIcEENS_9allocatorIcEEEENS4_IS6_EEE4sizeB7v160006Ev, symObjAddr: 0x18EC, symBinAddr: 0x100002580, symSize: 0x28 }
  - { offsetInCU: 0xC1C5, offset: 0xC1C5, size: 0x8, addend: 0x0, symName: __ZNSt3__16vectorINS_12basic_stringIcNS_11char_traitsIcEENS_9allocatorIcEEEENS4_IS6_EEE22__base_destruct_at_endB7v160006EPS6_, symObjAddr: 0x1928, symBinAddr: 0x1000025BC, symSize: 0x8C }
  - { offsetInCU: 0xC207, offset: 0xC207, size: 0x8, addend: 0x0, symName: __ZNSt3__116allocator_traitsINS_9allocatorINS_12basic_stringIcNS_11char_traitsIcEENS1_IcEEEEEEE7destroyB7v160006IS6_vEEvRS7_PT_, symObjAddr: 0x19B4, symBinAddr: 0x100002648, symSize: 0x2C }
  - { offsetInCU: 0xC244, offset: 0xC244, size: 0x8, addend: 0x0, symName: __ZNSt3__19allocatorINS_12basic_stringIcNS_11char_traitsIcEENS0_IcEEEEE7destroyB7v160006EPS5_, symObjAddr: 0x19E0, symBinAddr: 0x100002674, symSize: 0x28 }
  - { offsetInCU: 0xC276, offset: 0xC276, size: 0x8, addend: 0x0, symName: __ZNSt3__19allocatorINS_12basic_stringIcNS_11char_traitsIcEENS0_IcEEEEE10deallocateB7v160006EPS5_m, symObjAddr: 0x1A08, symBinAddr: 0x10000269C, symSize: 0x44 }
  - { offsetInCU: 0xC2B6, offset: 0xC2B6, size: 0x8, addend: 0x0, symName: __ZNSt3__117__compressed_pairIPNS_12basic_stringIcNS_11char_traitsIcEENS_9allocatorIcEEEENS4_IS6_EEE6secondB7v160006Ev, symObjAddr: 0x1B74, symBinAddr: 0x100002808, symSize: 0x24 }
  - { offsetInCU: 0xC2DA, offset: 0xC2DA, size: 0x8, addend: 0x0, symName: __ZNSt3__122__compressed_pair_elemINS_9allocatorINS_12basic_stringIcNS_11char_traitsIcEENS1_IcEEEEEELi1ELb1EE5__getB7v160006Ev, symObjAddr: 0x1B98, symBinAddr: 0x10000282C, symSize: 0x14 }
  - { offsetInCU: 0xC2FF, offset: 0xC2FF, size: 0x8, addend: 0x0, symName: __ZNKSt3__16vectorINS_12basic_stringIcNS_11char_traitsIcEENS_9allocatorIcEEEENS4_IS6_EEE9__end_capB7v160006Ev, symObjAddr: 0x1BAC, symBinAddr: 0x100002840, symSize: 0x28 }
  - { offsetInCU: 0xC323, offset: 0xC323, size: 0x8, addend: 0x0, symName: __ZNKSt3__117__compressed_pairIPNS_12basic_stringIcNS_11char_traitsIcEENS_9allocatorIcEEEENS4_IS6_EEE5firstB7v160006Ev, symObjAddr: 0x1BD4, symBinAddr: 0x100002868, symSize: 0x24 }
  - { offsetInCU: 0xC347, offset: 0xC347, size: 0x8, addend: 0x0, symName: __ZNKSt3__122__compressed_pair_elemIPNS_12basic_stringIcNS_11char_traitsIcEENS_9allocatorIcEEEELi0ELb0EE5__getB7v160006Ev, symObjAddr: 0x1BF8, symBinAddr: 0x10000288C, symSize: 0x14 }
  - { offsetInCU: 0xC36B, offset: 0xC36B, size: 0x8, addend: 0x0, symName: __ZNSt3__112basic_stringIcNS_11char_traitsIcEENS_9allocatorIcEEEC2B7v160006IDnEEPKc, symObjAddr: 0x1C0C, symBinAddr: 0x1000028A0, symSize: 0x60 }
  - { offsetInCU: 0xC3AC, offset: 0xC3AC, size: 0x8, addend: 0x0, symName: __ZNSt3__117__compressed_pairINS_12basic_stringIcNS_11char_traitsIcEENS_9allocatorIcEEE5__repES5_EC1B7v160006INS_18__default_init_tagESA_EEOT_OT0_, symObjAddr: 0x1C6C, symBinAddr: 0x100002900, symSize: 0x3C }
  - { offsetInCU: 0xC403, offset: 0xC403, size: 0x8, addend: 0x0, symName: __ZNSt3__111char_traitsIcE6lengthEPKc, symObjAddr: 0x1CA8, symBinAddr: 0x10000293C, symSize: 0x34 }
  - { offsetInCU: 0xC425, offset: 0xC425, size: 0x8, addend: 0x0, symName: __ZNSt3__117__compressed_pairINS_12basic_stringIcNS_11char_traitsIcEENS_9allocatorIcEEE5__repES5_EC2B7v160006INS_18__default_init_tagESA_EEOT_OT0_, symObjAddr: 0x1CEC, symBinAddr: 0x100002980, symSize: 0x3C }
  - { offsetInCU: 0xC47C, offset: 0xC47C, size: 0x8, addend: 0x0, symName: __ZNSt3__122__compressed_pair_elemINS_12basic_stringIcNS_11char_traitsIcEENS_9allocatorIcEEE5__repELi0ELb0EEC2B7v160006ENS_18__default_init_tagE, symObjAddr: 0x1D28, symBinAddr: 0x1000029BC, symSize: 0x14 }
  - { offsetInCU: 0xC4AE, offset: 0xC4AE, size: 0x8, addend: 0x0, symName: __ZNSt3__122__compressed_pair_elemINS_9allocatorIcEELi1ELb1EEC2B7v160006ENS_18__default_init_tagE, symObjAddr: 0x1D3C, symBinAddr: 0x1000029D0, symSize: 0x2C }
  - { offsetInCU: 0xC4E1, offset: 0xC4E1, size: 0x8, addend: 0x0, symName: __ZNSt3__19allocatorIcEC2B7v160006Ev, symObjAddr: 0x1D68, symBinAddr: 0x1000029FC, symSize: 0x2C }
  - { offsetInCU: 0xC50A, offset: 0xC50A, size: 0x8, addend: 0x0, symName: __ZNSt3__116__non_trivial_ifILb1ENS_9allocatorIcEEEC2B7v160006Ev, symObjAddr: 0x1D94, symBinAddr: 0x100002A28, symSize: 0x14 }
  - { offsetInCU: 0xC532, offset: 0xC532, size: 0x8, addend: 0x0, symName: __ZNKSt3__112basic_stringIcNS_11char_traitsIcEENS_9allocatorIcEEE4sizeB7v160006Ev, symObjAddr: 0x1DCC, symBinAddr: 0x100002A60, symSize: 0x54 }
  - { offsetInCU: 0xC556, offset: 0xC556, size: 0x8, addend: 0x0, symName: __ZNKSt3__112basic_stringIcNS_11char_traitsIcEENS_9allocatorIcEEE9__is_longB7v160006Ev, symObjAddr: 0x1E20, symBinAddr: 0x100002AB4, symSize: 0x38 }
  - { offsetInCU: 0xC57A, offset: 0xC57A, size: 0x8, addend: 0x0, symName: __ZNKSt3__112basic_stringIcNS_11char_traitsIcEENS_9allocatorIcEEE15__get_long_sizeB7v160006Ev, symObjAddr: 0x1E58, symBinAddr: 0x100002AEC, symSize: 0x28 }
  - { offsetInCU: 0xC59E, offset: 0xC59E, size: 0x8, addend: 0x0, symName: __ZNKSt3__112basic_stringIcNS_11char_traitsIcEENS_9allocatorIcEEE16__get_short_sizeB7v160006Ev, symObjAddr: 0x1E80, symBinAddr: 0x100002B14, symSize: 0x34 }
  - { offsetInCU: 0xC5C2, offset: 0xC5C2, size: 0x8, addend: 0x0, symName: __ZNKSt3__117__compressed_pairINS_12basic_stringIcNS_11char_traitsIcEENS_9allocatorIcEEE5__repES5_E5firstB7v160006Ev, symObjAddr: 0x1EB4, symBinAddr: 0x100002B48, symSize: 0x24 }
  - { offsetInCU: 0xC5E6, offset: 0xC5E6, size: 0x8, addend: 0x0, symName: __ZNKSt3__122__compressed_pair_elemINS_12basic_stringIcNS_11char_traitsIcEENS_9allocatorIcEEE5__repELi0ELb0EE5__getB7v160006Ev, symObjAddr: 0x1ED8, symBinAddr: 0x100002B6C, symSize: 0x14 }
  - { offsetInCU: 0xC60A, offset: 0xC60A, size: 0x8, addend: 0x0, symName: __ZNSt3__16vectorINS_12basic_stringIcNS_11char_traitsIcEENS_9allocatorIcEEEENS4_IS6_EEEC2B7v160006Ev, symObjAddr: 0x1EEC, symBinAddr: 0x100002B80, symSize: 0x58 }
  - { offsetInCU: 0xC637, offset: 0xC637, size: 0x8, addend: 0x0, symName: __ZNSt3__117__compressed_pairIPNS_12basic_stringIcNS_11char_traitsIcEENS_9allocatorIcEEEENS4_IS6_EEEC1B7v160006IDnNS_18__default_init_tagEEEOT_OT0_, symObjAddr: 0x1F44, symBinAddr: 0x100002BD8, symSize: 0x3C }
  - { offsetInCU: 0xC68D, offset: 0xC68D, size: 0x8, addend: 0x0, symName: __ZNSt3__117__compressed_pairIPNS_12basic_stringIcNS_11char_traitsIcEENS_9allocatorIcEEEENS4_IS6_EEEC2B7v160006IDnNS_18__default_init_tagEEEOT_OT0_, symObjAddr: 0x1F90, symBinAddr: 0x100002C24, symSize: 0x40 }
  - { offsetInCU: 0xC6E4, offset: 0xC6E4, size: 0x8, addend: 0x0, symName: __ZNSt3__122__compressed_pair_elemIPNS_12basic_stringIcNS_11char_traitsIcEENS_9allocatorIcEEEELi0ELb0EEC2B7v160006IDnvEEOT_, symObjAddr: 0x1FD0, symBinAddr: 0x100002C64, symSize: 0x1C }
  - { offsetInCU: 0xC723, offset: 0xC723, size: 0x8, addend: 0x0, symName: __ZNSt3__122__compressed_pair_elemINS_9allocatorINS_12basic_stringIcNS_11char_traitsIcEENS1_IcEEEEEELi1ELb1EEC2B7v160006ENS_18__default_init_tagE, symObjAddr: 0x1FEC, symBinAddr: 0x100002C80, symSize: 0x2C }
  - { offsetInCU: 0xC756, offset: 0xC756, size: 0x8, addend: 0x0, symName: __ZNSt3__19allocatorINS_12basic_stringIcNS_11char_traitsIcEENS0_IcEEEEEC2B7v160006Ev, symObjAddr: 0x2018, symBinAddr: 0x100002CAC, symSize: 0x2C }
  - { offsetInCU: 0xC77F, offset: 0xC77F, size: 0x8, addend: 0x0, symName: __ZNSt3__116__non_trivial_ifILb1ENS_9allocatorINS_12basic_stringIcNS_11char_traitsIcEENS1_IcEEEEEEEC2B7v160006Ev, symObjAddr: 0x2044, symBinAddr: 0x100002CD8, symSize: 0x14 }
  - { offsetInCU: 0xC7A7, offset: 0xC7A7, size: 0x8, addend: 0x0, symName: __ZNSt3__113unordered_setINS_12basic_stringIcNS_11char_traitsIcEENS_9allocatorIcEEEENS_4hashIS6_EENS_8equal_toIS6_EENS4_IS6_EEEC2ESt16initializer_listIS6_E, symObjAddr: 0x2058, symBinAddr: 0x100002CEC, symSize: 0x94 }
  - { offsetInCU: 0xC7E0, offset: 0xC7E0, size: 0x8, addend: 0x0, symName: __ZNSt3__112__hash_tableINS_12basic_stringIcNS_11char_traitsIcEENS_9allocatorIcEEEENS_4hashIS6_EENS_8equal_toIS6_EENS4_IS6_EEEC1Ev, symObjAddr: 0x20EC, symBinAddr: 0x100002D80, symSize: 0x2C }
  - { offsetInCU: 0xC809, offset: 0xC809, size: 0x8, addend: 0x0, symName: __ZNSt3__113unordered_setINS_12basic_stringIcNS_11char_traitsIcEENS_9allocatorIcEEEENS_4hashIS6_EENS_8equal_toIS6_EENS4_IS6_EEE6insertIPKS6_EEvT_SG_, symObjAddr: 0x2128, symBinAddr: 0x100002DBC, symSize: 0x70 }
  - { offsetInCU: 0xC857, offset: 0xC857, size: 0x8, addend: 0x0, symName: __ZNKSt16initializer_listINSt3__112basic_stringIcNS0_11char_traitsIcEENS0_9allocatorIcEEEEE5beginB7v160006Ev, symObjAddr: 0x2198, symBinAddr: 0x100002E2C, symSize: 0x18 }
  - { offsetInCU: 0xC87C, offset: 0xC87C, size: 0x8, addend: 0x0, symName: __ZNKSt16initializer_listINSt3__112basic_stringIcNS0_11char_traitsIcEENS0_9allocatorIcEEEEE3endB7v160006Ev, symObjAddr: 0x21B0, symBinAddr: 0x100002E44, symSize: 0x28 }
  - { offsetInCU: 0xC8A1, offset: 0xC8A1, size: 0x8, addend: 0x0, symName: __ZNSt3__112__hash_tableINS_12basic_stringIcNS_11char_traitsIcEENS_9allocatorIcEEEENS_4hashIS6_EENS_8equal_toIS6_EENS4_IS6_EEED1Ev, symObjAddr: 0x21D8, symBinAddr: 0x100002E6C, symSize: 0x2C }
  - { offsetInCU: 0xC8CB, offset: 0xC8CB, size: 0x8, addend: 0x0, symName: __ZNSt3__112__hash_tableINS_12basic_stringIcNS_11char_traitsIcEENS_9allocatorIcEEEENS_4hashIS6_EENS_8equal_toIS6_EENS4_IS6_EEEC2Ev, symObjAddr: 0x2204, symBinAddr: 0x100002E98, symSize: 0x7C }
  - { offsetInCU: 0xC8F4, offset: 0xC8F4, size: 0x8, addend: 0x0, symName: __ZNSt3__110unique_ptrIA_PNS_16__hash_node_baseIPNS_11__hash_nodeINS_12basic_stringIcNS_11char_traitsIcEENS_9allocatorIcEEEEPvEEEENS_25__bucket_list_deallocatorINS6_ISD_EEEEEC1B7v160006ILb1EvEEv, symObjAddr: 0x2280, symBinAddr: 0x100002F14, symSize: 0x2C }
  - { offsetInCU: 0xC927, offset: 0xC927, size: 0x8, addend: 0x0, symName: __ZNSt3__117__compressed_pairINS_16__hash_node_baseIPNS_11__hash_nodeINS_12basic_stringIcNS_11char_traitsIcEENS_9allocatorIcEEEEPvEEEENS6_ISA_EEEC1B7v160006ILb1EvEEv, symObjAddr: 0x22AC, symBinAddr: 0x100002F40, symSize: 0x2C }
  - { offsetInCU: 0xC95F, offset: 0xC95F, size: 0x8, addend: 0x0, symName: __ZNSt3__117__compressed_pairImNS_4hashINS_12basic_stringIcNS_11char_traitsIcEENS_9allocatorIcEEEEEEEC1B7v160006IiNS_18__default_init_tagEEEOT_OT0_, symObjAddr: 0x22D8, symBinAddr: 0x100002F6C, symSize: 0x3C }
  - { offsetInCU: 0xC9BA, offset: 0xC9BA, size: 0x8, addend: 0x0, symName: __ZNSt3__117__compressed_pairIfNS_8equal_toINS_12basic_stringIcNS_11char_traitsIcEENS_9allocatorIcEEEEEEEC1B7v160006IfNS_18__default_init_tagEEEOT_OT0_, symObjAddr: 0x2314, symBinAddr: 0x100002FA8, symSize: 0x3C }
  - { offsetInCU: 0xCA10, offset: 0xCA10, size: 0x8, addend: 0x0, symName: __ZNSt3__110unique_ptrIA_PNS_16__hash_node_baseIPNS_11__hash_nodeINS_12basic_stringIcNS_11char_traitsIcEENS_9allocatorIcEEEEPvEEEENS_25__bucket_list_deallocatorINS6_ISD_EEEEEC2B7v160006ILb1EvEEv, symObjAddr: 0x2350, symBinAddr: 0x100002FE4, symSize: 0x3C }
  - { offsetInCU: 0xCA48, offset: 0xCA48, size: 0x8, addend: 0x0, symName: __ZNSt3__117__compressed_pairIPPNS_16__hash_node_baseIPNS_11__hash_nodeINS_12basic_stringIcNS_11char_traitsIcEENS_9allocatorIcEEEEPvEEEENS_25__bucket_list_deallocatorINS6_ISD_EEEEEC1B7v160006INS_16__value_init_tagESK_EEOT_OT0_, symObjAddr: 0x238C, symBinAddr: 0x100003020, symSize: 0x3C }
  - { offsetInCU: 0xCA9E, offset: 0xCA9E, size: 0x8, addend: 0x0, symName: __ZNSt3__117__compressed_pairIPPNS_16__hash_node_baseIPNS_11__hash_nodeINS_12basic_stringIcNS_11char_traitsIcEENS_9allocatorIcEEEEPvEEEENS_25__bucket_list_deallocatorINS6_ISD_EEEEEC2B7v160006INS_16__value_init_tagESK_EEOT_OT0_, symObjAddr: 0x23C8, symBinAddr: 0x10000305C, symSize: 0x40 }
  - { offsetInCU: 0xCAF5, offset: 0xCAF5, size: 0x8, addend: 0x0, symName: __ZNSt3__122__compressed_pair_elemIPPNS_16__hash_node_baseIPNS_11__hash_nodeINS_12basic_stringIcNS_11char_traitsIcEENS_9allocatorIcEEEEPvEEEELi0ELb0EEC2B7v160006ENS_16__value_init_tagE, symObjAddr: 0x2408, symBinAddr: 0x10000309C, symSize: 0x18 }
  - { offsetInCU: 0xCB27, offset: 0xCB27, size: 0x8, addend: 0x0, symName: __ZNSt3__122__compressed_pair_elemINS_25__bucket_list_deallocatorINS_9allocatorIPNS_16__hash_node_baseIPNS_11__hash_nodeINS_12basic_stringIcNS_11char_traitsIcEENS2_IcEEEEPvEEEEEEEELi1ELb0EEC2B7v160006ENS_16__value_init_tagE, symObjAddr: 0x2420, symBinAddr: 0x1000030B4, symSize: 0x2C }
  - { offsetInCU: 0xCB5A, offset: 0xCB5A, size: 0x8, addend: 0x0, symName: __ZNSt3__125__bucket_list_deallocatorINS_9allocatorIPNS_16__hash_node_baseIPNS_11__hash_nodeINS_12basic_stringIcNS_11char_traitsIcEENS1_IcEEEEPvEEEEEEEC1B7v160006Ev, symObjAddr: 0x244C, symBinAddr: 0x1000030E0, symSize: 0x2C }
  - { offsetInCU: 0xCB82, offset: 0xCB82, size: 0x8, addend: 0x0, symName: __ZNSt3__125__bucket_list_deallocatorINS_9allocatorIPNS_16__hash_node_baseIPNS_11__hash_nodeINS_12basic_stringIcNS_11char_traitsIcEENS1_IcEEEEPvEEEEEEEC2B7v160006Ev, symObjAddr: 0x2478, symBinAddr: 0x10000310C, symSize: 0x40 }
  - { offsetInCU: 0xCBAA, offset: 0xCBAA, size: 0x8, addend: 0x0, symName: __ZNSt3__117__compressed_pairImNS_9allocatorIPNS_16__hash_node_baseIPNS_11__hash_nodeINS_12basic_stringIcNS_11char_traitsIcEENS1_IcEEEEPvEEEEEEEC1B7v160006IiNS_18__default_init_tagEEEOT_OT0_, symObjAddr: 0x24B8, symBinAddr: 0x10000314C, symSize: 0x3C }
  - { offsetInCU: 0xCC00, offset: 0xCC00, size: 0x8, addend: 0x0, symName: __ZNSt3__117__compressed_pairImNS_9allocatorIPNS_16__hash_node_baseIPNS_11__hash_nodeINS_12basic_stringIcNS_11char_traitsIcEENS1_IcEEEEPvEEEEEEEC2B7v160006IiNS_18__default_init_tagEEEOT_OT0_, symObjAddr: 0x24F4, symBinAddr: 0x100003188, symSize: 0x40 }
  - { offsetInCU: 0xCC57, offset: 0xCC57, size: 0x8, addend: 0x0, symName: __ZNSt3__122__compressed_pair_elemImLi0ELb0EEC2B7v160006IivEEOT_, symObjAddr: 0x2534, symBinAddr: 0x1000031C8, symSize: 0x24 }
  - { offsetInCU: 0xCC96, offset: 0xCC96, size: 0x8, addend: 0x0, symName: __ZNSt3__122__compressed_pair_elemINS_9allocatorIPNS_16__hash_node_baseIPNS_11__hash_nodeINS_12basic_stringIcNS_11char_traitsIcEENS1_IcEEEEPvEEEEEELi1ELb1EEC2B7v160006ENS_18__default_init_tagE, symObjAddr: 0x2558, symBinAddr: 0x1000031EC, symSize: 0x2C }
  - { offsetInCU: 0xCCC9, offset: 0xCCC9, size: 0x8, addend: 0x0, symName: __ZNSt3__19allocatorIPNS_16__hash_node_baseIPNS_11__hash_nodeINS_12basic_stringIcNS_11char_traitsIcEENS0_IcEEEEPvEEEEEC2B7v160006Ev, symObjAddr: 0x2584, symBinAddr: 0x100003218, symSize: 0x2C }
  - { offsetInCU: 0xCCF2, offset: 0xCCF2, size: 0x8, addend: 0x0, symName: __ZNSt3__116__non_trivial_ifILb1ENS_9allocatorIPNS_16__hash_node_baseIPNS_11__hash_nodeINS_12basic_stringIcNS_11char_traitsIcEENS1_IcEEEEPvEEEEEEEC2B7v160006Ev, symObjAddr: 0x25B0, symBinAddr: 0x100003244, symSize: 0x14 }
  - { offsetInCU: 0xCD19, offset: 0xCD19, size: 0x8, addend: 0x0, symName: __ZNSt3__117__compressed_pairINS_16__hash_node_baseIPNS_11__hash_nodeINS_12basic_stringIcNS_11char_traitsIcEENS_9allocatorIcEEEEPvEEEENS6_ISA_EEEC2B7v160006ILb1EvEEv, symObjAddr: 0x25C4, symBinAddr: 0x100003258, symSize: 0x34 }
  - { offsetInCU: 0xCD4C, offset: 0xCD4C, size: 0x8, addend: 0x0, symName: __ZNSt3__122__compressed_pair_elemINS_16__hash_node_baseIPNS_11__hash_nodeINS_12basic_stringIcNS_11char_traitsIcEENS_9allocatorIcEEEEPvEEEELi0ELb0EEC2B7v160006ENS_16__value_init_tagE, symObjAddr: 0x25F8, symBinAddr: 0x10000328C, symSize: 0x2C }
  - { offsetInCU: 0xCD7F, offset: 0xCD7F, size: 0x8, addend: 0x0, symName: __ZNSt3__122__compressed_pair_elemINS_9allocatorINS_11__hash_nodeINS_12basic_stringIcNS_11char_traitsIcEENS1_IcEEEEPvEEEELi1ELb1EEC2B7v160006ENS_16__value_init_tagE, symObjAddr: 0x2624, symBinAddr: 0x1000032B8, symSize: 0x2C }
  - { offsetInCU: 0xCDB2, offset: 0xCDB2, size: 0x8, addend: 0x0, symName: __ZNSt3__116__hash_node_baseIPNS_11__hash_nodeINS_12basic_stringIcNS_11char_traitsIcEENS_9allocatorIcEEEEPvEEEC1B7v160006Ev, symObjAddr: 0x2650, symBinAddr: 0x1000032E4, symSize: 0x2C }
  - { offsetInCU: 0xCDDB, offset: 0xCDDB, size: 0x8, addend: 0x0, symName: __ZNSt3__116__hash_node_baseIPNS_11__hash_nodeINS_12basic_stringIcNS_11char_traitsIcEENS_9allocatorIcEEEEPvEEEC2B7v160006Ev, symObjAddr: 0x267C, symBinAddr: 0x100003310, symSize: 0x18 }
  - { offsetInCU: 0xCE02, offset: 0xCE02, size: 0x8, addend: 0x0, symName: __ZNSt3__19allocatorINS_11__hash_nodeINS_12basic_stringIcNS_11char_traitsIcEENS0_IcEEEEPvEEEC2B7v160006Ev, symObjAddr: 0x2694, symBinAddr: 0x100003328, symSize: 0x2C }
  - { offsetInCU: 0xCE2B, offset: 0xCE2B, size: 0x8, addend: 0x0, symName: __ZNSt3__116__non_trivial_ifILb1ENS_9allocatorINS_11__hash_nodeINS_12basic_stringIcNS_11char_traitsIcEENS1_IcEEEEPvEEEEEC2B7v160006Ev, symObjAddr: 0x26C0, symBinAddr: 0x100003354, symSize: 0x14 }
  - { offsetInCU: 0xCE52, offset: 0xCE52, size: 0x8, addend: 0x0, symName: __ZNSt3__117__compressed_pairImNS_4hashINS_12basic_stringIcNS_11char_traitsIcEENS_9allocatorIcEEEEEEEC2B7v160006IiNS_18__default_init_tagEEEOT_OT0_, symObjAddr: 0x26D4, symBinAddr: 0x100003368, symSize: 0x40 }
  - { offsetInCU: 0xCEA9, offset: 0xCEA9, size: 0x8, addend: 0x0, symName: __ZNSt3__122__compressed_pair_elemINS_4hashINS_12basic_stringIcNS_11char_traitsIcEENS_9allocatorIcEEEEEELi1ELb1EEC2B7v160006ENS_18__default_init_tagE, symObjAddr: 0x2714, symBinAddr: 0x1000033A8, symSize: 0x14 }
  - { offsetInCU: 0xCEDB, offset: 0xCEDB, size: 0x8, addend: 0x0, symName: __ZNSt3__117__compressed_pairIfNS_8equal_toINS_12basic_stringIcNS_11char_traitsIcEENS_9allocatorIcEEEEEEEC2B7v160006IfNS_18__default_init_tagEEEOT_OT0_, symObjAddr: 0x2728, symBinAddr: 0x1000033BC, symSize: 0x40 }
  - { offsetInCU: 0xCF32, offset: 0xCF32, size: 0x8, addend: 0x0, symName: __ZNSt3__122__compressed_pair_elemIfLi0ELb0EEC2B7v160006IfvEEOT_, symObjAddr: 0x2768, symBinAddr: 0x1000033FC, symSize: 0x24 }
  - { offsetInCU: 0xCF72, offset: 0xCF72, size: 0x8, addend: 0x0, symName: __ZNSt3__122__compressed_pair_elemINS_8equal_toINS_12basic_stringIcNS_11char_traitsIcEENS_9allocatorIcEEEEEELi1ELb1EEC2B7v160006ENS_18__default_init_tagE, symObjAddr: 0x278C, symBinAddr: 0x100003420, symSize: 0x14 }
  - { offsetInCU: 0xCFA5, offset: 0xCFA5, size: 0x8, addend: 0x0, symName: __ZNSt3__112__hash_tableINS_12basic_stringIcNS_11char_traitsIcEENS_9allocatorIcEEEENS_4hashIS6_EENS_8equal_toIS6_EENS4_IS6_EEE15__insert_uniqueB7v160006ERKS6_, symObjAddr: 0x27A0, symBinAddr: 0x100003434, symSize: 0x50 }
  - { offsetInCU: 0xCFD7, offset: 0xCFD7, size: 0x8, addend: 0x0, symName: __ZNSt3__112__hash_tableINS_12basic_stringIcNS_11char_traitsIcEENS_9allocatorIcEEEENS_4hashIS6_EENS_8equal_toIS6_EENS4_IS6_EEE25__emplace_unique_key_argsIS6_JRKS6_EEENS_4pairINS_15__hash_iteratorIPNS_11__hash_nodeIS6_PvEEEEbEERKT_DpOT0_, symObjAddr: 0x27F0, symBinAddr: 0x100003484, symSize: 0x4C0 }
  - { offsetInCU: 0xD0B6, offset: 0xD0B6, size: 0x8, addend: 0x0, symName: __ZNSt3__122__hash_key_value_typesINS_12basic_stringIcNS_11char_traitsIcEENS_9allocatorIcEEEEE9__get_keyB7v160006ERKS6_, symObjAddr: 0x2CB0, symBinAddr: 0x100003944, symSize: 0x14 }
  - { offsetInCU: 0xD0D9, offset: 0xD0D9, size: 0x8, addend: 0x0, symName: __ZNSt3__112__hash_tableINS_12basic_stringIcNS_11char_traitsIcEENS_9allocatorIcEEEENS_4hashIS6_EENS_8equal_toIS6_EENS4_IS6_EEE13hash_functionB7v160006Ev, symObjAddr: 0x2CC4, symBinAddr: 0x100003958, symSize: 0x28 }
  - { offsetInCU: 0xD0FD, offset: 0xD0FD, size: 0x8, addend: 0x0, symName: __ZNKSt3__113__string_hashIcNS_9allocatorIcEEEclERKNS_12basic_stringIcNS_11char_traitsIcEES2_EE, symObjAddr: 0x2CEC, symBinAddr: 0x100003980, symSize: 0x64 }
  - { offsetInCU: 0xD130, offset: 0xD130, size: 0x8, addend: 0x0, symName: __ZNKSt3__112__hash_tableINS_12basic_stringIcNS_11char_traitsIcEENS_9allocatorIcEEEENS_4hashIS6_EENS_8equal_toIS6_EENS4_IS6_EEE12bucket_countB7v160006Ev, symObjAddr: 0x2D50, symBinAddr: 0x1000039E4, symSize: 0x28 }
  - { offsetInCU: 0xD154, offset: 0xD154, size: 0x8, addend: 0x0, symName: __ZNKSt3__110unique_ptrIA_PNS_16__hash_node_baseIPNS_11__hash_nodeINS_12basic_stringIcNS_11char_traitsIcEENS_9allocatorIcEEEEPvEEEENS_25__bucket_list_deallocatorINS6_ISD_EEEEEixB7v160006Em, symObjAddr: 0x2E10, symBinAddr: 0x100003AA4, symSize: 0x34 }
  - { offsetInCU: 0xD187, offset: 0xD187, size: 0x8, addend: 0x0, symName: __ZNKSt3__116__hash_node_baseIPNS_11__hash_nodeINS_12basic_stringIcNS_11char_traitsIcEENS_9allocatorIcEEEEPvEEE6__hashB7v160006Ev, symObjAddr: 0x2E44, symBinAddr: 0x100003AD8, symSize: 0x18 }
  - { offsetInCU: 0xD1AC, offset: 0xD1AC, size: 0x8, addend: 0x0, symName: __ZNSt3__112__hash_tableINS_12basic_stringIcNS_11char_traitsIcEENS_9allocatorIcEEEENS_4hashIS6_EENS_8equal_toIS6_EENS4_IS6_EEE6key_eqB7v160006Ev, symObjAddr: 0x2E5C, symBinAddr: 0x100003AF0, symSize: 0x28 }
  - { offsetInCU: 0xD1D0, offset: 0xD1D0, size: 0x8, addend: 0x0, symName: __ZNKSt3__18equal_toINS_12basic_stringIcNS_11char_traitsIcEENS_9allocatorIcEEEEEclB7v160006ERKS6_S9_, symObjAddr: 0x2E84, symBinAddr: 0x100003B18, symSize: 0x34 }
  - { offsetInCU: 0xD212, offset: 0xD212, size: 0x8, addend: 0x0, symName: __ZNSt3__116__hash_node_baseIPNS_11__hash_nodeINS_12basic_stringIcNS_11char_traitsIcEENS_9allocatorIcEEEEPvEEE8__upcastB7v160006Ev, symObjAddr: 0x2EB8, symBinAddr: 0x100003B4C, symSize: 0x24 }
  - { offsetInCU: 0xD235, offset: 0xD235, size: 0x8, addend: 0x0, symName: __ZNSt3__112__hash_tableINS_12basic_stringIcNS_11char_traitsIcEENS_9allocatorIcEEEENS_4hashIS6_EENS_8equal_toIS6_EENS4_IS6_EEE21__construct_node_hashIRKS6_JEEENS_10unique_ptrINS_11__hash_nodeIS6_PvEENS_22__hash_node_destructorINS4_ISJ_EEEEEEmOT_DpOT0_, symObjAddr: 0x2EDC, symBinAddr: 0x100003B70, symSize: 0x140 }
  - { offsetInCU: 0xD2A7, offset: 0xD2A7, size: 0x8, addend: 0x0, symName: __ZNSt3__112__hash_tableINS_12basic_stringIcNS_11char_traitsIcEENS_9allocatorIcEEEENS_4hashIS6_EENS_8equal_toIS6_EENS4_IS6_EEE4sizeB7v160006Ev, symObjAddr: 0x301C, symBinAddr: 0x100003CB0, symSize: 0x28 }
  - { offsetInCU: 0xD2CB, offset: 0xD2CB, size: 0x8, addend: 0x0, symName: __ZNSt3__112__hash_tableINS_12basic_stringIcNS_11char_traitsIcEENS_9allocatorIcEEEENS_4hashIS6_EENS_8equal_toIS6_EENS4_IS6_EEE15max_load_factorB7v160006Ev, symObjAddr: 0x3044, symBinAddr: 0x100003CD8, symSize: 0x28 }
  - { offsetInCU: 0xD2EF, offset: 0xD2EF, size: 0x8, addend: 0x0, symName: __ZNSt3__112__hash_tableINS_12basic_stringIcNS_11char_traitsIcEENS_9allocatorIcEEEENS_4hashIS6_EENS_8equal_toIS6_EENS4_IS6_EEE15__rehash_uniqueB7v160006Em, symObjAddr: 0x306C, symBinAddr: 0x100003D00, symSize: 0x2C }
  - { offsetInCU: 0xD321, offset: 0xD321, size: 0x8, addend: 0x0, symName: __Z4ceilB7v160006f, symObjAddr: 0x3114, symBinAddr: 0x100003DA8, symSize: 0x18 }
  - { offsetInCU: 0xD350, offset: 0xD350, size: 0x8, addend: 0x0, symName: __ZNSt3__117__compressed_pairINS_16__hash_node_baseIPNS_11__hash_nodeINS_12basic_stringIcNS_11char_traitsIcEENS_9allocatorIcEEEEPvEEEENS6_ISA_EEE5firstB7v160006Ev, symObjAddr: 0x312C, symBinAddr: 0x100003DC0, symSize: 0x24 }
  - { offsetInCU: 0xD374, offset: 0xD374, size: 0x8, addend: 0x0, symName: __ZNSt3__116__hash_node_baseIPNS_11__hash_nodeINS_12basic_stringIcNS_11char_traitsIcEENS_9allocatorIcEEEEPvEEE5__ptrB7v160006Ev, symObjAddr: 0x3150, symBinAddr: 0x100003DE4, symSize: 0x24 }
  - { offsetInCU: 0xD398, offset: 0xD398, size: 0x8, addend: 0x0, symName: __ZNKSt3__110unique_ptrINS_11__hash_nodeINS_12basic_stringIcNS_11char_traitsIcEENS_9allocatorIcEEEEPvEENS_22__hash_node_destructorINS5_IS9_EEEEEptB7v160006Ev, symObjAddr: 0x3174, symBinAddr: 0x100003E08, symSize: 0x28 }
  - { offsetInCU: 0xD3BC, offset: 0xD3BC, size: 0x8, addend: 0x0, symName: __ZNKSt3__110unique_ptrINS_11__hash_nodeINS_12basic_stringIcNS_11char_traitsIcEENS_9allocatorIcEEEEPvEENS_22__hash_node_destructorINS5_IS9_EEEEE3getB7v160006Ev, symObjAddr: 0x319C, symBinAddr: 0x100003E30, symSize: 0x28 }
  - { offsetInCU: 0xD3E0, offset: 0xD3E0, size: 0x8, addend: 0x0, symName: __ZNSt3__110unique_ptrINS_11__hash_nodeINS_12basic_stringIcNS_11char_traitsIcEENS_9allocatorIcEEEEPvEENS_22__hash_node_destructorINS5_IS9_EEEEE7releaseB7v160006Ev, symObjAddr: 0x31C4, symBinAddr: 0x100003E58, symSize: 0x44 }
  - { offsetInCU: 0xD412, offset: 0xD412, size: 0x8, addend: 0x0, symName: __ZNSt3__110unique_ptrINS_11__hash_nodeINS_12basic_stringIcNS_11char_traitsIcEENS_9allocatorIcEEEEPvEENS_22__hash_node_destructorINS5_IS9_EEEEED1B7v160006Ev, symObjAddr: 0x3208, symBinAddr: 0x100003E9C, symSize: 0x2C }
  - { offsetInCU: 0xD43A, offset: 0xD43A, size: 0x8, addend: 0x0, symName: __ZNSt3__115__hash_iteratorIPNS_11__hash_nodeINS_12basic_stringIcNS_11char_traitsIcEENS_9allocatorIcEEEEPvEEEC1B7v160006EPNS_16__hash_node_baseISA_EEPKv, symObjAddr: 0x3234, symBinAddr: 0x100003EC8, symSize: 0x3C }
  - { offsetInCU: 0xD48A, offset: 0xD48A, size: 0x8, addend: 0x0, symName: __ZNSt3__14pairINS_15__hash_iteratorIPNS_11__hash_nodeINS_12basic_stringIcNS_11char_traitsIcEENS_9allocatorIcEEEEPvEEEEbEC1B7v160006ISC_RbLS9_0EEEOT_OT0_, symObjAddr: 0x3270, symBinAddr: 0x100003F04, symSize: 0x3C }
  - { offsetInCU: 0xD4E7, offset: 0xD4E7, size: 0x8, addend: 0x0, symName: __ZNSt3__117__compressed_pairImNS_4hashINS_12basic_stringIcNS_11char_traitsIcEENS_9allocatorIcEEEEEEE6secondB7v160006Ev, symObjAddr: 0x32AC, symBinAddr: 0x100003F40, symSize: 0x24 }
  - { offsetInCU: 0xD50B, offset: 0xD50B, size: 0x8, addend: 0x0, symName: __ZNSt3__122__compressed_pair_elemINS_4hashINS_12basic_stringIcNS_11char_traitsIcEENS_9allocatorIcEEEEEELi1ELb1EE5__getB7v160006Ev, symObjAddr: 0x32D0, symBinAddr: 0x100003F64, symSize: 0x14 }
  - { offsetInCU: 0xD530, offset: 0xD530, size: 0x8, addend: 0x0, symName: __ZNKSt3__112basic_stringIcNS_11char_traitsIcEENS_9allocatorIcEEE4dataB7v160006Ev, symObjAddr: 0x3320, symBinAddr: 0x100003FB4, symSize: 0x28 }
  - { offsetInCU: 0xD554, offset: 0xD554, size: 0x8, addend: 0x0, symName: __ZNSt3__121__murmur2_or_cityhashImLm64EEclEPKvm, symObjAddr: 0x3348, symBinAddr: 0x100003FDC, symSize: 0x410 }
  - { offsetInCU: 0xD5EE, offset: 0xD5EE, size: 0x8, addend: 0x0, symName: __ZNSt3__121__murmur2_or_cityhashImLm64EE18__hash_len_0_to_16EPKcm, symObjAddr: 0x3758, symBinAddr: 0x1000043EC, symSize: 0x1C0 }
  - { offsetInCU: 0xD6C7, offset: 0xD6C7, size: 0x8, addend: 0x0, symName: __ZNSt3__121__murmur2_or_cityhashImLm64EE19__hash_len_17_to_32EPKcm, symObjAddr: 0x3918, symBinAddr: 0x1000045AC, symSize: 0x130 }
  - { offsetInCU: 0xD730, offset: 0xD730, size: 0x8, addend: 0x0, symName: __ZNSt3__121__murmur2_or_cityhashImLm64EE19__hash_len_33_to_64EPKcm, symObjAddr: 0x3A48, symBinAddr: 0x1000046DC, symSize: 0x2B8 }
  - { offsetInCU: 0xD7E2, offset: 0xD7E2, size: 0x8, addend: 0x0, symName: __ZNSt3__121__murmur2_or_cityhashImLm64EE13__hash_len_16Emm, symObjAddr: 0x3D20, symBinAddr: 0x1000049B4, symSize: 0x80 }
  - { offsetInCU: 0xD83D, offset: 0xD83D, size: 0x8, addend: 0x0, symName: __ZNSt3__121__murmur2_or_cityhashImLm64EE29__weak_hash_len_32_with_seedsEPKcmm, symObjAddr: 0x3DA0, symBinAddr: 0x100004A34, symSize: 0x88 }
  - { offsetInCU: 0xD87C, offset: 0xD87C, size: 0x8, addend: 0x0, symName: __ZNSt3__121__murmur2_or_cityhashImLm64EE8__rotateEmi, symObjAddr: 0x3E28, symBinAddr: 0x100004ABC, symSize: 0x64 }
  - { offsetInCU: 0xD8AD, offset: 0xD8AD, size: 0x8, addend: 0x0, symName: __ZNSt3__14pairImmEaSB7v160006EOS1_, symObjAddr: 0x3E8C, symBinAddr: 0x100004B20, symSize: 0x30 }
  - { offsetInCU: 0xD8E1, offset: 0xD8E1, size: 0x8, addend: 0x0, symName: __ZNSt3__121__murmur2_or_cityhashImLm64EE11__shift_mixEm, symObjAddr: 0x3EF8, symBinAddr: 0x100004B8C, symSize: 0x1C }
  - { offsetInCU: 0xD904, offset: 0xD904, size: 0x8, addend: 0x0, symName: __ZNSt3__121__murmur2_or_cityhashImLm64EE22__rotate_by_at_least_1Emi, symObjAddr: 0x3F14, symBinAddr: 0x100004BA8, symSize: 0x38 }
  - { offsetInCU: 0xD935, offset: 0xD935, size: 0x8, addend: 0x0, symName: __ZNSt3__121__murmur2_or_cityhashImLm64EE29__weak_hash_len_32_with_seedsEmmmmmm, symObjAddr: 0x3F6C, symBinAddr: 0x100004C00, symSize: 0xD8 }
  - { offsetInCU: 0xD9B0, offset: 0xD9B0, size: 0x8, addend: 0x0, symName: __ZNSt3__14pairImmEC1B7v160006ImmLPv0EEEOT_OT0_, symObjAddr: 0x4044, symBinAddr: 0x100004CD8, symSize: 0x3C }
  - { offsetInCU: 0xDA0D, offset: 0xDA0D, size: 0x8, addend: 0x0, symName: __ZNSt3__14pairImmEC2B7v160006ImmLPv0EEEOT_OT0_, symObjAddr: 0x4080, symBinAddr: 0x100004D14, symSize: 0x34 }
  - { offsetInCU: 0xDA69, offset: 0xDA69, size: 0x8, addend: 0x0, symName: __ZNKSt3__112basic_stringIcNS_11char_traitsIcEENS_9allocatorIcEEE13__get_pointerB7v160006Ev, symObjAddr: 0x40C8, symBinAddr: 0x100004D5C, symSize: 0x54 }
  - { offsetInCU: 0xDA8D, offset: 0xDA8D, size: 0x8, addend: 0x0, symName: __ZNKSt3__112basic_stringIcNS_11char_traitsIcEENS_9allocatorIcEEE18__get_long_pointerB7v160006Ev, symObjAddr: 0x411C, symBinAddr: 0x100004DB0, symSize: 0x28 }
  - { offsetInCU: 0xDAB1, offset: 0xDAB1, size: 0x8, addend: 0x0, symName: __ZNKSt3__112basic_stringIcNS_11char_traitsIcEENS_9allocatorIcEEE19__get_short_pointerB7v160006Ev, symObjAddr: 0x4144, symBinAddr: 0x100004DD8, symSize: 0x28 }
  - { offsetInCU: 0xDAD5, offset: 0xDAD5, size: 0x8, addend: 0x0, symName: __ZNSt3__114pointer_traitsIPKcE10pointer_toB7v160006ERS1_, symObjAddr: 0x416C, symBinAddr: 0x100004E00, symSize: 0x14 }
  - { offsetInCU: 0xDAF8, offset: 0xDAF8, size: 0x8, addend: 0x0, symName: __ZNKSt3__110unique_ptrIA_PNS_16__hash_node_baseIPNS_11__hash_nodeINS_12basic_stringIcNS_11char_traitsIcEENS_9allocatorIcEEEEPvEEEENS_25__bucket_list_deallocatorINS6_ISD_EEEEE11get_deleterB7v160006Ev, symObjAddr: 0x4180, symBinAddr: 0x100004E14, symSize: 0x24 }
  - { offsetInCU: 0xDB1C, offset: 0xDB1C, size: 0x8, addend: 0x0, symName: __ZNKSt3__125__bucket_list_deallocatorINS_9allocatorIPNS_16__hash_node_baseIPNS_11__hash_nodeINS_12basic_stringIcNS_11char_traitsIcEENS1_IcEEEEPvEEEEEEE4sizeB7v160006Ev, symObjAddr: 0x41A4, symBinAddr: 0x100004E38, symSize: 0x28 }
  - { offsetInCU: 0xDB40, offset: 0xDB40, size: 0x8, addend: 0x0, symName: __ZNKSt3__117__compressed_pairIPPNS_16__hash_node_baseIPNS_11__hash_nodeINS_12basic_stringIcNS_11char_traitsIcEENS_9allocatorIcEEEEPvEEEENS_25__bucket_list_deallocatorINS6_ISD_EEEEE6secondB7v160006Ev, symObjAddr: 0x41CC, symBinAddr: 0x100004E60, symSize: 0x28 }
  - { offsetInCU: 0xDB64, offset: 0xDB64, size: 0x8, addend: 0x0, symName: __ZNKSt3__122__compressed_pair_elemINS_25__bucket_list_deallocatorINS_9allocatorIPNS_16__hash_node_baseIPNS_11__hash_nodeINS_12basic_stringIcNS_11char_traitsIcEENS2_IcEEEEPvEEEEEEEELi1ELb0EE5__getB7v160006Ev, symObjAddr: 0x41F4, symBinAddr: 0x100004E88, symSize: 0x14 }
  - { offsetInCU: 0xDB89, offset: 0xDB89, size: 0x8, addend: 0x0, symName: __ZNKSt3__117__compressed_pairImNS_9allocatorIPNS_16__hash_node_baseIPNS_11__hash_nodeINS_12basic_stringIcNS_11char_traitsIcEENS1_IcEEEEPvEEEEEEE5firstB7v160006Ev, symObjAddr: 0x4208, symBinAddr: 0x100004E9C, symSize: 0x24 }
  - { offsetInCU: 0xDBAD, offset: 0xDBAD, size: 0x8, addend: 0x0, symName: __ZNKSt3__122__compressed_pair_elemImLi0ELb0EE5__getB7v160006Ev, symObjAddr: 0x422C, symBinAddr: 0x100004EC0, symSize: 0x14 }
  - { offsetInCU: 0xDBD2, offset: 0xDBD2, size: 0x8, addend: 0x0, symName: __ZNKSt3__117__compressed_pairIPPNS_16__hash_node_baseIPNS_11__hash_nodeINS_12basic_stringIcNS_11char_traitsIcEENS_9allocatorIcEEEEPvEEEENS_25__bucket_list_deallocatorINS6_ISD_EEEEE5firstB7v160006Ev, symObjAddr: 0x4240, symBinAddr: 0x100004ED4, symSize: 0x24 }
  - { offsetInCU: 0xDBF6, offset: 0xDBF6, size: 0x8, addend: 0x0, symName: __ZNKSt3__122__compressed_pair_elemIPPNS_16__hash_node_baseIPNS_11__hash_nodeINS_12basic_stringIcNS_11char_traitsIcEENS_9allocatorIcEEEEPvEEEELi0ELb0EE5__getB7v160006Ev, symObjAddr: 0x4264, symBinAddr: 0x100004EF8, symSize: 0x14 }
  - { offsetInCU: 0xDC1B, offset: 0xDC1B, size: 0x8, addend: 0x0, symName: __ZNSt3__117__compressed_pairIfNS_8equal_toINS_12basic_stringIcNS_11char_traitsIcEENS_9allocatorIcEEEEEEE6secondB7v160006Ev, symObjAddr: 0x4278, symBinAddr: 0x100004F0C, symSize: 0x24 }
  - { offsetInCU: 0xDC3F, offset: 0xDC3F, size: 0x8, addend: 0x0, symName: __ZNSt3__122__compressed_pair_elemINS_8equal_toINS_12basic_stringIcNS_11char_traitsIcEENS_9allocatorIcEEEEEELi1ELb1EE5__getB7v160006Ev, symObjAddr: 0x429C, symBinAddr: 0x100004F30, symSize: 0x14 }
  - { offsetInCU: 0xDC64, offset: 0xDC64, size: 0x8, addend: 0x0, symName: __ZNSt3__111char_traitsIcE7compareEPKcS3_m, symObjAddr: 0x43F8, symBinAddr: 0x10000508C, symSize: 0x6C }
  - { offsetInCU: 0xDCA3, offset: 0xDCA3, size: 0x8, addend: 0x0, symName: __ZNSt3__114pointer_traitsIPNS_16__hash_node_baseIPNS_11__hash_nodeINS_12basic_stringIcNS_11char_traitsIcEENS_9allocatorIcEEEEPvEEEEE10pointer_toB7v160006ERSC_, symObjAddr: 0x4498, symBinAddr: 0x10000512C, symSize: 0x14 }
  - { offsetInCU: 0xDCC6, offset: 0xDCC6, size: 0x8, addend: 0x0, symName: __ZNSt3__112__hash_tableINS_12basic_stringIcNS_11char_traitsIcEENS_9allocatorIcEEEENS_4hashIS6_EENS_8equal_toIS6_EENS4_IS6_EEE12__node_allocB7v160006Ev, symObjAddr: 0x44AC, symBinAddr: 0x100005140, symSize: 0x28 }
  - { offsetInCU: 0xDCEA, offset: 0xDCEA, size: 0x8, addend: 0x0, symName: __ZNSt3__116allocator_traitsINS_9allocatorINS_11__hash_nodeINS_12basic_stringIcNS_11char_traitsIcEENS1_IcEEEEPvEEEEE8allocateB7v160006ERSA_m, symObjAddr: 0x44D4, symBinAddr: 0x100005168, symSize: 0x2C }
  - { offsetInCU: 0xDD1C, offset: 0xDD1C, size: 0x8, addend: 0x0, symName: __ZNSt3__122__hash_node_destructorINS_9allocatorINS_11__hash_nodeINS_12basic_stringIcNS_11char_traitsIcEENS1_IcEEEEPvEEEEEC1B7v160006ERSA_b, symObjAddr: 0x4500, symBinAddr: 0x100005194, symSize: 0x48 }
  - { offsetInCU: 0xDD67, offset: 0xDD67, size: 0x8, addend: 0x0, symName: __ZNSt3__110unique_ptrINS_11__hash_nodeINS_12basic_stringIcNS_11char_traitsIcEENS_9allocatorIcEEEEPvEENS_22__hash_node_destructorINS5_IS9_EEEEEC1B7v160006ILb1EvEEPS9_NS_16__dependent_typeINS_27__unique_ptr_deleter_sfinaeISC_EEXT_EE20__good_rval_ref_typeE, symObjAddr: 0x4548, symBinAddr: 0x1000051DC, symSize: 0x3C }
  - { offsetInCU: 0xDDB7, offset: 0xDDB7, size: 0x8, addend: 0x0, symName: __ZNSt3__116allocator_traitsINS_9allocatorINS_11__hash_nodeINS_12basic_stringIcNS_11char_traitsIcEENS1_IcEEEEPvEEEEE9constructB7v160006IS7_JRKS7_EvEEvRSA_PT_DpOT0_, symObjAddr: 0x4584, symBinAddr: 0x100005218, symSize: 0x34 }
  - { offsetInCU: 0xDE0E, offset: 0xDE0E, size: 0x8, addend: 0x0, symName: __ZNSt3__122__hash_key_value_typesINS_12basic_stringIcNS_11char_traitsIcEENS_9allocatorIcEEEEE9__get_ptrB7v160006ERS6_, symObjAddr: 0x45B8, symBinAddr: 0x10000524C, symSize: 0x14 }
  - { offsetInCU: 0xDE31, offset: 0xDE31, size: 0x8, addend: 0x0, symName: __ZNSt3__110unique_ptrINS_11__hash_nodeINS_12basic_stringIcNS_11char_traitsIcEENS_9allocatorIcEEEEPvEENS_22__hash_node_destructorINS5_IS9_EEEEE11get_deleterB7v160006Ev, symObjAddr: 0x45CC, symBinAddr: 0x100005260, symSize: 0x24 }
  - { offsetInCU: 0xDE55, offset: 0xDE55, size: 0x8, addend: 0x0, symName: __ZNSt3__117__compressed_pairINS_16__hash_node_baseIPNS_11__hash_nodeINS_12basic_stringIcNS_11char_traitsIcEENS_9allocatorIcEEEEPvEEEENS6_ISA_EEE6secondB7v160006Ev, symObjAddr: 0x45F0, symBinAddr: 0x100005284, symSize: 0x24 }
  - { offsetInCU: 0xDE79, offset: 0xDE79, size: 0x8, addend: 0x0, symName: __ZNSt3__122__compressed_pair_elemINS_9allocatorINS_11__hash_nodeINS_12basic_stringIcNS_11char_traitsIcEENS1_IcEEEEPvEEEELi1ELb1EE5__getB7v160006Ev, symObjAddr: 0x4614, symBinAddr: 0x1000052A8, symSize: 0x14 }
  - { offsetInCU: 0xDE9E, offset: 0xDE9E, size: 0x8, addend: 0x0, symName: __ZNSt3__19allocatorINS_11__hash_nodeINS_12basic_stringIcNS_11char_traitsIcEENS0_IcEEEEPvEEE8allocateB7v160006Em, symObjAddr: 0x4628, symBinAddr: 0x1000052BC, symSize: 0x5C }
  - { offsetInCU: 0xDEDA, offset: 0xDEDA, size: 0x8, addend: 0x0, symName: __ZNSt3__116allocator_traitsINS_9allocatorINS_11__hash_nodeINS_12basic_stringIcNS_11char_traitsIcEENS1_IcEEEEPvEEEEE8max_sizeB7v160006ISA_vEEmRKSA_, symObjAddr: 0x4684, symBinAddr: 0x100005318, symSize: 0x24 }
  - { offsetInCU: 0xDF08, offset: 0xDF08, size: 0x8, addend: 0x0, symName: __ZNKSt3__19allocatorINS_11__hash_nodeINS_12basic_stringIcNS_11char_traitsIcEENS0_IcEEEEPvEEE8max_sizeB7v160006Ev, symObjAddr: 0x473C, symBinAddr: 0x1000053D0, symSize: 0x18 }
  - { offsetInCU: 0xDF2D, offset: 0xDF2D, size: 0x8, addend: 0x0, symName: __ZNSt3__122__hash_node_destructorINS_9allocatorINS_11__hash_nodeINS_12basic_stringIcNS_11char_traitsIcEENS1_IcEEEEPvEEEEEC2B7v160006ERSA_b, symObjAddr: 0x47A4, symBinAddr: 0x100005438, symSize: 0x38 }
  - { offsetInCU: 0xDF72, offset: 0xDF72, size: 0x8, addend: 0x0, symName: __ZNSt3__110unique_ptrINS_11__hash_nodeINS_12basic_stringIcNS_11char_traitsIcEENS_9allocatorIcEEEEPvEENS_22__hash_node_destructorINS5_IS9_EEEEEC2B7v160006ILb1EvEEPS9_NS_16__dependent_typeINS_27__unique_ptr_deleter_sfinaeISC_EEXT_EE20__good_rval_ref_typeE, symObjAddr: 0x47DC, symBinAddr: 0x100005470, symSize: 0x48 }
  - { offsetInCU: 0xDFC1, offset: 0xDFC1, size: 0x8, addend: 0x0, symName: __ZNSt3__117__compressed_pairIPNS_11__hash_nodeINS_12basic_stringIcNS_11char_traitsIcEENS_9allocatorIcEEEEPvEENS_22__hash_node_destructorINS5_IS9_EEEEEC1B7v160006IRSA_SD_EEOT_OT0_, symObjAddr: 0x4824, symBinAddr: 0x1000054B8, symSize: 0x3C }
  - { offsetInCU: 0xE017, offset: 0xE017, size: 0x8, addend: 0x0, symName: __ZNSt3__117__compressed_pairIPNS_11__hash_nodeINS_12basic_stringIcNS_11char_traitsIcEENS_9allocatorIcEEEEPvEENS_22__hash_node_destructorINS5_IS9_EEEEEC2B7v160006IRSA_SD_EEOT_OT0_, symObjAddr: 0x4860, symBinAddr: 0x1000054F4, symSize: 0x48 }
  - { offsetInCU: 0xE06E, offset: 0xE06E, size: 0x8, addend: 0x0, symName: __ZNSt3__122__compressed_pair_elemIPNS_11__hash_nodeINS_12basic_stringIcNS_11char_traitsIcEENS_9allocatorIcEEEEPvEELi0ELb0EEC2B7v160006IRSA_vEEOT_, symObjAddr: 0x48A8, symBinAddr: 0x10000553C, symSize: 0x24 }
  - { offsetInCU: 0xE0AE, offset: 0xE0AE, size: 0x8, addend: 0x0, symName: __ZNSt3__122__compressed_pair_elemINS_22__hash_node_destructorINS_9allocatorINS_11__hash_nodeINS_12basic_stringIcNS_11char_traitsIcEENS2_IcEEEEPvEEEEEELi1ELb0EEC2B7v160006ISC_vEEOT_, symObjAddr: 0x48CC, symBinAddr: 0x100005560, symSize: 0x24 }
  - { offsetInCU: 0xE0EE, offset: 0xE0EE, size: 0x8, addend: 0x0, symName: __ZNSt3__19allocatorINS_11__hash_nodeINS_12basic_stringIcNS_11char_traitsIcEENS0_IcEEEEPvEEE9constructB7v160006IS6_JRKS6_EEEvPT_DpOT0_, symObjAddr: 0x48F0, symBinAddr: 0x100005584, symSize: 0x30 }
  - { offsetInCU: 0xE142, offset: 0xE142, size: 0x8, addend: 0x0, symName: __ZNSt3__117__compressed_pairIPNS_11__hash_nodeINS_12basic_stringIcNS_11char_traitsIcEENS_9allocatorIcEEEEPvEENS_22__hash_node_destructorINS5_IS9_EEEEE6secondB7v160006Ev, symObjAddr: 0x4920, symBinAddr: 0x1000055B4, symSize: 0x28 }
  - { offsetInCU: 0xE166, offset: 0xE166, size: 0x8, addend: 0x0, symName: __ZNSt3__122__compressed_pair_elemINS_22__hash_node_destructorINS_9allocatorINS_11__hash_nodeINS_12basic_stringIcNS_11char_traitsIcEENS2_IcEEEEPvEEEEEELi1ELb0EE5__getB7v160006Ev, symObjAddr: 0x4948, symBinAddr: 0x1000055DC, symSize: 0x14 }
  - { offsetInCU: 0xE18B, offset: 0xE18B, size: 0x8, addend: 0x0, symName: __ZNSt3__117__compressed_pairImNS_4hashINS_12basic_stringIcNS_11char_traitsIcEENS_9allocatorIcEEEEEEE5firstB7v160006Ev, symObjAddr: 0x495C, symBinAddr: 0x1000055F0, symSize: 0x24 }
  - { offsetInCU: 0xE1AF, offset: 0xE1AF, size: 0x8, addend: 0x0, symName: __ZNSt3__122__compressed_pair_elemImLi0ELb0EE5__getB7v160006Ev, symObjAddr: 0x4980, symBinAddr: 0x100005614, symSize: 0x14 }
  - { offsetInCU: 0xE1D4, offset: 0xE1D4, size: 0x8, addend: 0x0, symName: __ZNSt3__117__compressed_pairIfNS_8equal_toINS_12basic_stringIcNS_11char_traitsIcEENS_9allocatorIcEEEEEEE5firstB7v160006Ev, symObjAddr: 0x4994, symBinAddr: 0x100005628, symSize: 0x24 }
  - { offsetInCU: 0xE1F8, offset: 0xE1F8, size: 0x8, addend: 0x0, symName: __ZNSt3__122__compressed_pair_elemIfLi0ELb0EE5__getB7v160006Ev, symObjAddr: 0x49B8, symBinAddr: 0x10000564C, symSize: 0x14 }
  - { offsetInCU: 0xE21C, offset: 0xE21C, size: 0x8, addend: 0x0, symName: __ZNSt3__112__hash_tableINS_12basic_stringIcNS_11char_traitsIcEENS_9allocatorIcEEEENS_4hashIS6_EENS_8equal_toIS6_EENS4_IS6_EEE8__rehashILb1EEEvm, symObjAddr: 0x49CC, symBinAddr: 0x100005660, symSize: 0x1A8 }
  - { offsetInCU: 0xE26A, offset: 0xE26A, size: 0x8, addend: 0x0, symName: __ZNSt3__112__hash_tableINS_12basic_stringIcNS_11char_traitsIcEENS_9allocatorIcEEEENS_4hashIS6_EENS_8equal_toIS6_EENS4_IS6_EEE11__do_rehashILb1EEEvm, symObjAddr: 0x4B74, symBinAddr: 0x100005808, symSize: 0x290 }
  - { offsetInCU: 0xE34C, offset: 0xE34C, size: 0x8, addend: 0x0, symName: __ZNSt3__110unique_ptrIA_PNS_16__hash_node_baseIPNS_11__hash_nodeINS_12basic_stringIcNS_11char_traitsIcEENS_9allocatorIcEEEEPvEEEENS_25__bucket_list_deallocatorINS6_ISD_EEEEE11get_deleterB7v160006Ev, symObjAddr: 0x4E80, symBinAddr: 0x100005B14, symSize: 0x24 }
  - { offsetInCU: 0xE370, offset: 0xE370, size: 0x8, addend: 0x0, symName: __ZNSt3__125__bucket_list_deallocatorINS_9allocatorIPNS_16__hash_node_baseIPNS_11__hash_nodeINS_12basic_stringIcNS_11char_traitsIcEENS1_IcEEEEPvEEEEEEE7__allocB7v160006Ev, symObjAddr: 0x4EA4, symBinAddr: 0x100005B38, symSize: 0x24 }
  - { offsetInCU: 0xE394, offset: 0xE394, size: 0x8, addend: 0x0, symName: __ZNSt3__110unique_ptrIA_PNS_16__hash_node_baseIPNS_11__hash_nodeINS_12basic_stringIcNS_11char_traitsIcEENS_9allocatorIcEEEEPvEEEENS_25__bucket_list_deallocatorINS6_ISD_EEEEE5resetB7v160006IPSD_EENS_9enable_ifIXsr28_CheckArrayPointerConversionIT_EE5valueEvE4typeESM_, symObjAddr: 0x4EC8, symBinAddr: 0x100005B5C, symSize: 0x78 }
  - { offsetInCU: 0xE3DF, offset: 0xE3DF, size: 0x8, addend: 0x0, symName: __ZNSt3__116allocator_traitsINS_9allocatorIPNS_16__hash_node_baseIPNS_11__hash_nodeINS_12basic_stringIcNS_11char_traitsIcEENS1_IcEEEEPvEEEEEEE8allocateB7v160006ERSE_m, symObjAddr: 0x4F40, symBinAddr: 0x100005BD4, symSize: 0x2C }
  - { offsetInCU: 0xE412, offset: 0xE412, size: 0x8, addend: 0x0, symName: __ZNSt3__125__bucket_list_deallocatorINS_9allocatorIPNS_16__hash_node_baseIPNS_11__hash_nodeINS_12basic_stringIcNS_11char_traitsIcEENS1_IcEEEEPvEEEEEEE4sizeB7v160006Ev, symObjAddr: 0x4F6C, symBinAddr: 0x100005C00, symSize: 0x24 }
  - { offsetInCU: 0xE436, offset: 0xE436, size: 0x8, addend: 0x0, symName: __ZNSt3__117__compressed_pairIPPNS_16__hash_node_baseIPNS_11__hash_nodeINS_12basic_stringIcNS_11char_traitsIcEENS_9allocatorIcEEEEPvEEEENS_25__bucket_list_deallocatorINS6_ISD_EEEEE6secondB7v160006Ev, symObjAddr: 0x4F90, symBinAddr: 0x100005C24, symSize: 0x28 }
  - { offsetInCU: 0xE45A, offset: 0xE45A, size: 0x8, addend: 0x0, symName: __ZNSt3__122__compressed_pair_elemINS_25__bucket_list_deallocatorINS_9allocatorIPNS_16__hash_node_baseIPNS_11__hash_nodeINS_12basic_stringIcNS_11char_traitsIcEENS2_IcEEEEPvEEEEEEEELi1ELb0EE5__getB7v160006Ev, symObjAddr: 0x4FB8, symBinAddr: 0x100005C4C, symSize: 0x14 }
  - { offsetInCU: 0xE47F, offset: 0xE47F, size: 0x8, addend: 0x0, symName: __ZNSt3__117__compressed_pairImNS_9allocatorIPNS_16__hash_node_baseIPNS_11__hash_nodeINS_12basic_stringIcNS_11char_traitsIcEENS1_IcEEEEPvEEEEEEE6secondB7v160006Ev, symObjAddr: 0x4FCC, symBinAddr: 0x100005C60, symSize: 0x24 }
  - { offsetInCU: 0xE4A3, offset: 0xE4A3, size: 0x8, addend: 0x0, symName: __ZNSt3__122__compressed_pair_elemINS_9allocatorIPNS_16__hash_node_baseIPNS_11__hash_nodeINS_12basic_stringIcNS_11char_traitsIcEENS1_IcEEEEPvEEEEEELi1ELb1EE5__getB7v160006Ev, symObjAddr: 0x4FF0, symBinAddr: 0x100005C84, symSize: 0x14 }
  - { offsetInCU: 0xE4C8, offset: 0xE4C8, size: 0x8, addend: 0x0, symName: __ZNSt3__117__compressed_pairIPPNS_16__hash_node_baseIPNS_11__hash_nodeINS_12basic_stringIcNS_11char_traitsIcEENS_9allocatorIcEEEEPvEEEENS_25__bucket_list_deallocatorINS6_ISD_EEEEE5firstB7v160006Ev, symObjAddr: 0x5004, symBinAddr: 0x100005C98, symSize: 0x24 }
  - { offsetInCU: 0xE4EC, offset: 0xE4EC, size: 0x8, addend: 0x0, symName: __ZNSt3__125__bucket_list_deallocatorINS_9allocatorIPNS_16__hash_node_baseIPNS_11__hash_nodeINS_12basic_stringIcNS_11char_traitsIcEENS1_IcEEEEPvEEEEEEEclB7v160006EPSD_, symObjAddr: 0x5028, symBinAddr: 0x100005CBC, symSize: 0x58 }
  - { offsetInCU: 0xE51F, offset: 0xE51F, size: 0x8, addend: 0x0, symName: __ZNSt3__122__compressed_pair_elemIPPNS_16__hash_node_baseIPNS_11__hash_nodeINS_12basic_stringIcNS_11char_traitsIcEENS_9allocatorIcEEEEPvEEEELi0ELb0EE5__getB7v160006Ev, symObjAddr: 0x5080, symBinAddr: 0x100005D14, symSize: 0x14 }
  - { offsetInCU: 0xE544, offset: 0xE544, size: 0x8, addend: 0x0, symName: __ZNSt3__116allocator_traitsINS_9allocatorIPNS_16__hash_node_baseIPNS_11__hash_nodeINS_12basic_stringIcNS_11char_traitsIcEENS1_IcEEEEPvEEEEEEE10deallocateB7v160006ERSE_PSD_m, symObjAddr: 0x5094, symBinAddr: 0x100005D28, symSize: 0x34 }
  - { offsetInCU: 0xE586, offset: 0xE586, size: 0x8, addend: 0x0, symName: __ZNSt3__19allocatorIPNS_16__hash_node_baseIPNS_11__hash_nodeINS_12basic_stringIcNS_11char_traitsIcEENS0_IcEEEEPvEEEEE10deallocateB7v160006EPSC_m, symObjAddr: 0x50C8, symBinAddr: 0x100005D5C, symSize: 0x40 }
  - { offsetInCU: 0xE5C6, offset: 0xE5C6, size: 0x8, addend: 0x0, symName: __ZNSt3__19allocatorIPNS_16__hash_node_baseIPNS_11__hash_nodeINS_12basic_stringIcNS_11char_traitsIcEENS0_IcEEEEPvEEEEE8allocateB7v160006Em, symObjAddr: 0x5108, symBinAddr: 0x100005D9C, symSize: 0x58 }
  - { offsetInCU: 0xE602, offset: 0xE602, size: 0x8, addend: 0x0, symName: __ZNSt3__116allocator_traitsINS_9allocatorIPNS_16__hash_node_baseIPNS_11__hash_nodeINS_12basic_stringIcNS_11char_traitsIcEENS1_IcEEEEPvEEEEEEE8max_sizeB7v160006ISE_vEEmRKSE_, symObjAddr: 0x5160, symBinAddr: 0x100005DF4, symSize: 0x24 }
  - { offsetInCU: 0xE630, offset: 0xE630, size: 0x8, addend: 0x0, symName: __ZNKSt3__19allocatorIPNS_16__hash_node_baseIPNS_11__hash_nodeINS_12basic_stringIcNS_11char_traitsIcEENS0_IcEEEEPvEEEEE8max_sizeB7v160006Ev, symObjAddr: 0x5184, symBinAddr: 0x100005E18, symSize: 0x14 }
  - { offsetInCU: 0xE655, offset: 0xE655, size: 0x8, addend: 0x0, symName: __ZNSt3__117__compressed_pairImNS_9allocatorIPNS_16__hash_node_baseIPNS_11__hash_nodeINS_12basic_stringIcNS_11char_traitsIcEENS1_IcEEEEPvEEEEEEE5firstB7v160006Ev, symObjAddr: 0x5198, symBinAddr: 0x100005E2C, symSize: 0x24 }
  - { offsetInCU: 0xE683, offset: 0xE683, size: 0x8, addend: 0x0, symName: __ZNKSt3__16__lessImmEclB7v160006ERKmS3_, symObjAddr: 0x522C, symBinAddr: 0x100005EC0, symSize: 0x34 }
  - { offsetInCU: 0xE6C4, offset: 0xE6C4, size: 0x8, addend: 0x0, symName: __ZNSt3__122__compressed_pair_elemINS_16__hash_node_baseIPNS_11__hash_nodeINS_12basic_stringIcNS_11char_traitsIcEENS_9allocatorIcEEEEPvEEEELi0ELb0EE5__getB7v160006Ev, symObjAddr: 0x5260, symBinAddr: 0x100005EF4, symSize: 0x14 }
  - { offsetInCU: 0xE6E9, offset: 0xE6E9, size: 0x8, addend: 0x0, symName: __ZNKSt3__117__compressed_pairIPNS_11__hash_nodeINS_12basic_stringIcNS_11char_traitsIcEENS_9allocatorIcEEEEPvEENS_22__hash_node_destructorINS5_IS9_EEEEE5firstB7v160006Ev, symObjAddr: 0x5274, symBinAddr: 0x100005F08, symSize: 0x24 }
  - { offsetInCU: 0xE70D, offset: 0xE70D, size: 0x8, addend: 0x0, symName: __ZNKSt3__122__compressed_pair_elemIPNS_11__hash_nodeINS_12basic_stringIcNS_11char_traitsIcEENS_9allocatorIcEEEEPvEELi0ELb0EE5__getB7v160006Ev, symObjAddr: 0x5298, symBinAddr: 0x100005F2C, symSize: 0x14 }
  - { offsetInCU: 0xE732, offset: 0xE732, size: 0x8, addend: 0x0, symName: __ZNSt3__117__compressed_pairIPNS_11__hash_nodeINS_12basic_stringIcNS_11char_traitsIcEENS_9allocatorIcEEEEPvEENS_22__hash_node_destructorINS5_IS9_EEEEE5firstB7v160006Ev, symObjAddr: 0x52AC, symBinAddr: 0x100005F40, symSize: 0x24 }
  - { offsetInCU: 0xE756, offset: 0xE756, size: 0x8, addend: 0x0, symName: __ZNSt3__122__compressed_pair_elemIPNS_11__hash_nodeINS_12basic_stringIcNS_11char_traitsIcEENS_9allocatorIcEEEEPvEELi0ELb0EE5__getB7v160006Ev, symObjAddr: 0x52D0, symBinAddr: 0x100005F64, symSize: 0x14 }
  - { offsetInCU: 0xE77A, offset: 0xE77A, size: 0x8, addend: 0x0, symName: __ZNSt3__110unique_ptrINS_11__hash_nodeINS_12basic_stringIcNS_11char_traitsIcEENS_9allocatorIcEEEEPvEENS_22__hash_node_destructorINS5_IS9_EEEEED2B7v160006Ev, symObjAddr: 0x52E4, symBinAddr: 0x100005F78, symSize: 0x30 }
  - { offsetInCU: 0xE7A3, offset: 0xE7A3, size: 0x8, addend: 0x0, symName: __ZNSt3__110unique_ptrINS_11__hash_nodeINS_12basic_stringIcNS_11char_traitsIcEENS_9allocatorIcEEEEPvEENS_22__hash_node_destructorINS5_IS9_EEEEE5resetB7v160006EPS9_, symObjAddr: 0x5314, symBinAddr: 0x100005FA8, symSize: 0x78 }
  - { offsetInCU: 0xE7E5, offset: 0xE7E5, size: 0x8, addend: 0x0, symName: __ZNSt3__122__hash_node_destructorINS_9allocatorINS_11__hash_nodeINS_12basic_stringIcNS_11char_traitsIcEENS1_IcEEEEPvEEEEEclB7v160006EPS9_, symObjAddr: 0x538C, symBinAddr: 0x100006020, symSize: 0x90 }
  - { offsetInCU: 0xE818, offset: 0xE818, size: 0x8, addend: 0x0, symName: __ZNSt3__116allocator_traitsINS_9allocatorINS_11__hash_nodeINS_12basic_stringIcNS_11char_traitsIcEENS1_IcEEEEPvEEEEE7destroyB7v160006IS7_vvEEvRSA_PT_, symObjAddr: 0x541C, symBinAddr: 0x1000060B0, symSize: 0x28 }
  - { offsetInCU: 0xE853, offset: 0xE853, size: 0x8, addend: 0x0, symName: __ZNSt3__116allocator_traitsINS_9allocatorINS_11__hash_nodeINS_12basic_stringIcNS_11char_traitsIcEENS1_IcEEEEPvEEEEE10deallocateB7v160006ERSA_PS9_m, symObjAddr: 0x5444, symBinAddr: 0x1000060D8, symSize: 0x34 }
  - { offsetInCU: 0xE895, offset: 0xE895, size: 0x8, addend: 0x0, symName: __ZNSt3__19allocatorINS_11__hash_nodeINS_12basic_stringIcNS_11char_traitsIcEENS0_IcEEEEPvEEE10deallocateB7v160006EPS8_m, symObjAddr: 0x5478, symBinAddr: 0x10000610C, symSize: 0x44 }
  - { offsetInCU: 0xE8D5, offset: 0xE8D5, size: 0x8, addend: 0x0, symName: __ZNSt3__115__hash_iteratorIPNS_11__hash_nodeINS_12basic_stringIcNS_11char_traitsIcEENS_9allocatorIcEEEEPvEEEC2B7v160006EPNS_16__hash_node_baseISA_EEPKv, symObjAddr: 0x54BC, symBinAddr: 0x100006150, symSize: 0x24 }
  - { offsetInCU: 0xE91B, offset: 0xE91B, size: 0x8, addend: 0x0, symName: __ZNSt3__14pairINS_15__hash_iteratorIPNS_11__hash_nodeINS_12basic_stringIcNS_11char_traitsIcEENS_9allocatorIcEEEEPvEEEEbEC2B7v160006ISC_RbLS9_0EEEOT_OT0_, symObjAddr: 0x54E0, symBinAddr: 0x100006174, symSize: 0x38 }
  - { offsetInCU: 0xE977, offset: 0xE977, size: 0x8, addend: 0x0, symName: __ZNSt3__112__hash_tableINS_12basic_stringIcNS_11char_traitsIcEENS_9allocatorIcEEEENS_4hashIS6_EENS_8equal_toIS6_EENS4_IS6_EEED2Ev, symObjAddr: 0x5518, symBinAddr: 0x1000061AC, symSize: 0x58 }
  - { offsetInCU: 0xE9A0, offset: 0xE9A0, size: 0x8, addend: 0x0, symName: __ZNSt3__112__hash_tableINS_12basic_stringIcNS_11char_traitsIcEENS_9allocatorIcEEEENS_4hashIS6_EENS_8equal_toIS6_EENS4_IS6_EEE17__deallocate_nodeEPNS_16__hash_node_baseIPNS_11__hash_nodeIS6_PvEEEE, symObjAddr: 0x5570, symBinAddr: 0x100006204, symSize: 0x98 }
  - { offsetInCU: 0xEA10, offset: 0xEA10, size: 0x8, addend: 0x0, symName: __ZNSt3__110unique_ptrIA_PNS_16__hash_node_baseIPNS_11__hash_nodeINS_12basic_stringIcNS_11char_traitsIcEENS_9allocatorIcEEEEPvEEEENS_25__bucket_list_deallocatorINS6_ISD_EEEEED1B7v160006Ev, symObjAddr: 0x5618, symBinAddr: 0x1000062AC, symSize: 0x2C }
  - { offsetInCU: 0xEA38, offset: 0xEA38, size: 0x8, addend: 0x0, symName: __ZNSt3__110unique_ptrIA_PNS_16__hash_node_baseIPNS_11__hash_nodeINS_12basic_stringIcNS_11char_traitsIcEENS_9allocatorIcEEEEPvEEEENS_25__bucket_list_deallocatorINS6_ISD_EEEEED2B7v160006Ev, symObjAddr: 0x5644, symBinAddr: 0x1000062D8, symSize: 0x30 }
  - { offsetInCU: 0xEA61, offset: 0xEA61, size: 0x8, addend: 0x0, symName: __ZNSt3__110unique_ptrIA_PNS_16__hash_node_baseIPNS_11__hash_nodeINS_12basic_stringIcNS_11char_traitsIcEENS_9allocatorIcEEEEPvEEEENS_25__bucket_list_deallocatorINS6_ISD_EEEEE5resetB7v160006EDn, symObjAddr: 0x5674, symBinAddr: 0x100006308, symSize: 0x6C }
  - { offsetInCU: 0xEA9F, offset: 0xEA9F, size: 0x8, addend: 0x0, symName: __ZNSt3__113unordered_setINS_12basic_stringIcNS_11char_traitsIcEENS_9allocatorIcEEEENS_4hashIS6_EENS_8equal_toIS6_EENS4_IS6_EEED2B7v160006Ev, symObjAddr: 0x56E0, symBinAddr: 0x100006374, symSize: 0x2C }
  - { offsetInCU: 0xEAC7, offset: 0xEAC7, size: 0x8, addend: 0x0, symName: __ZNKSt3__112__hash_tableINS_12basic_stringIcNS_11char_traitsIcEENS_9allocatorIcEEEENS_4hashIS6_EENS_8equal_toIS6_EENS4_IS6_EEE14__count_uniqueIS6_EEmRKT_, symObjAddr: 0x570C, symBinAddr: 0x1000063A0, symSize: 0x64 }
  - { offsetInCU: 0xEB05, offset: 0xEB05, size: 0x8, addend: 0x0, symName: __ZNKSt3__112__hash_tableINS_12basic_stringIcNS_11char_traitsIcEENS_9allocatorIcEEEENS_4hashIS6_EENS_8equal_toIS6_EENS4_IS6_EEE4findIS6_EENS_21__hash_const_iteratorIPNS_11__hash_nodeIS6_PvEEEERKT_, symObjAddr: 0x57A4, symBinAddr: 0x100006438, symSize: 0x1BC }
  - { offsetInCU: 0xEB8D, offset: 0xEB8D, size: 0x8, addend: 0x0, symName: __ZNKSt3__112__hash_tableINS_12basic_stringIcNS_11char_traitsIcEENS_9allocatorIcEEEENS_4hashIS6_EENS_8equal_toIS6_EENS4_IS6_EEE3endEv, symObjAddr: 0x5960, symBinAddr: 0x1000065F4, symSize: 0x30 }
  - { offsetInCU: 0xEBB4, offset: 0xEBB4, size: 0x8, addend: 0x0, symName: __ZNKSt3__112__hash_tableINS_12basic_stringIcNS_11char_traitsIcEENS_9allocatorIcEEEENS_4hashIS6_EENS_8equal_toIS6_EENS4_IS6_EEE13hash_functionB7v160006Ev, symObjAddr: 0x59C0, symBinAddr: 0x100006654, symSize: 0x28 }
  - { offsetInCU: 0xEBD8, offset: 0xEBD8, size: 0x8, addend: 0x0, symName: __ZNKSt3__112__hash_tableINS_12basic_stringIcNS_11char_traitsIcEENS_9allocatorIcEEEENS_4hashIS6_EENS_8equal_toIS6_EENS4_IS6_EEE6key_eqB7v160006Ev, symObjAddr: 0x59E8, symBinAddr: 0x10000667C, symSize: 0x28 }
  - { offsetInCU: 0xEBFB, offset: 0xEBFB, size: 0x8, addend: 0x0, symName: __ZNSt3__121__hash_const_iteratorIPNS_11__hash_nodeINS_12basic_stringIcNS_11char_traitsIcEENS_9allocatorIcEEEEPvEEEC1B7v160006EPNS_16__hash_node_baseISA_EEPKv, symObjAddr: 0x5A10, symBinAddr: 0x1000066A4, symSize: 0x3C }
  - { offsetInCU: 0xEC42, offset: 0xEC42, size: 0x8, addend: 0x0, symName: __ZNKSt3__117__compressed_pairImNS_4hashINS_12basic_stringIcNS_11char_traitsIcEENS_9allocatorIcEEEEEEE6secondB7v160006Ev, symObjAddr: 0x5A4C, symBinAddr: 0x1000066E0, symSize: 0x24 }
  - { offsetInCU: 0xEC66, offset: 0xEC66, size: 0x8, addend: 0x0, symName: __ZNKSt3__122__compressed_pair_elemINS_4hashINS_12basic_stringIcNS_11char_traitsIcEENS_9allocatorIcEEEEEELi1ELb1EE5__getB7v160006Ev, symObjAddr: 0x5A70, symBinAddr: 0x100006704, symSize: 0x14 }
  - { offsetInCU: 0xEC8B, offset: 0xEC8B, size: 0x8, addend: 0x0, symName: __ZNKSt3__117__compressed_pairIfNS_8equal_toINS_12basic_stringIcNS_11char_traitsIcEENS_9allocatorIcEEEEEEE6secondB7v160006Ev, symObjAddr: 0x5A84, symBinAddr: 0x100006718, symSize: 0x24 }
  - { offsetInCU: 0xECAF, offset: 0xECAF, size: 0x8, addend: 0x0, symName: __ZNKSt3__122__compressed_pair_elemINS_8equal_toINS_12basic_stringIcNS_11char_traitsIcEENS_9allocatorIcEEEEEELi1ELb1EE5__getB7v160006Ev, symObjAddr: 0x5AA8, symBinAddr: 0x10000673C, symSize: 0x14 }
  - { offsetInCU: 0xECD4, offset: 0xECD4, size: 0x8, addend: 0x0, symName: __ZNSt3__121__hash_const_iteratorIPNS_11__hash_nodeINS_12basic_stringIcNS_11char_traitsIcEENS_9allocatorIcEEEEPvEEEC2B7v160006EPNS_16__hash_node_baseISA_EEPKv, symObjAddr: 0x5ABC, symBinAddr: 0x100006750, symSize: 0x24 }
  - { offsetInCU: 0xED1A, offset: 0xED1A, size: 0x8, addend: 0x0, symName: __ZNSt3__16vectorINS_12basic_stringIcNS_11char_traitsIcEENS_9allocatorIcEEEENS4_IS6_EEE9__end_capB7v160006Ev, symObjAddr: 0x5AE0, symBinAddr: 0x100006774, symSize: 0x28 }
  - { offsetInCU: 0xED3E, offset: 0xED3E, size: 0x8, addend: 0x0, symName: __ZNSt3__16vectorINS_12basic_stringIcNS_11char_traitsIcEENS_9allocatorIcEEEENS4_IS6_EEE22__construct_one_at_endB7v160006IJRKS6_EEEvDpOT_, symObjAddr: 0x5B08, symBinAddr: 0x10000679C, symSize: 0x90 }
  - { offsetInCU: 0xED8A, offset: 0xED8A, size: 0x8, addend: 0x0, symName: __ZNSt3__16vectorINS_12basic_stringIcNS_11char_traitsIcEENS_9allocatorIcEEEENS4_IS6_EEE21__push_back_slow_pathIRKS6_EEvOT_, symObjAddr: 0x5B98, symBinAddr: 0x10000682C, symSize: 0xD8 }
  - { offsetInCU: 0xEDE7, offset: 0xEDE7, size: 0x8, addend: 0x0, symName: __ZNSt3__117__compressed_pairIPNS_12basic_stringIcNS_11char_traitsIcEENS_9allocatorIcEEEENS4_IS6_EEE5firstB7v160006Ev, symObjAddr: 0x5C70, symBinAddr: 0x100006904, symSize: 0x24 }
  - { offsetInCU: 0xEE0B, offset: 0xEE0B, size: 0x8, addend: 0x0, symName: __ZNSt3__122__compressed_pair_elemIPNS_12basic_stringIcNS_11char_traitsIcEENS_9allocatorIcEEEELi0ELb0EE5__getB7v160006Ev, symObjAddr: 0x5C94, symBinAddr: 0x100006928, symSize: 0x14 }
  - { offsetInCU: 0xEE48, offset: 0xEE48, size: 0x8, addend: 0x0, symName: __ZNSt3__16vectorINS_12basic_stringIcNS_11char_traitsIcEENS_9allocatorIcEEEENS4_IS6_EEE21_ConstructTransactionC1B7v160006ERS8_m, symObjAddr: 0x5CA8, symBinAddr: 0x10000693C, symSize: 0x3C }
  - { offsetInCU: 0xEE8F, offset: 0xEE8F, size: 0x8, addend: 0x0, symName: __ZNSt3__116allocator_traitsINS_9allocatorINS_12basic_stringIcNS_11char_traitsIcEENS1_IcEEEEEEE9constructB7v160006IS6_JRKS6_EvEEvRS7_PT_DpOT0_, symObjAddr: 0x5CE4, symBinAddr: 0x100006978, symSize: 0x34 }
  - { offsetInCU: 0xEEE5, offset: 0xEEE5, size: 0x8, addend: 0x0, symName: __ZNSt3__16vectorINS_12basic_stringIcNS_11char_traitsIcEENS_9allocatorIcEEEENS4_IS6_EEE21_ConstructTransactionD1B7v160006Ev, symObjAddr: 0x5D18, symBinAddr: 0x1000069AC, symSize: 0x2C }
  - { offsetInCU: 0xEF0E, offset: 0xEF0E, size: 0x8, addend: 0x0, symName: __ZNSt3__16vectorINS_12basic_stringIcNS_11char_traitsIcEENS_9allocatorIcEEEENS4_IS6_EEE21_ConstructTransactionC2B7v160006ERS8_m, symObjAddr: 0x5D44, symBinAddr: 0x1000069D8, symSize: 0x4C }
  - { offsetInCU: 0xEF54, offset: 0xEF54, size: 0x8, addend: 0x0, symName: __ZNSt3__19allocatorINS_12basic_stringIcNS_11char_traitsIcEENS0_IcEEEEE9constructB7v160006IS5_JRKS5_EEEvPT_DpOT0_, symObjAddr: 0x5D90, symBinAddr: 0x100006A24, symSize: 0x30 }
  - { offsetInCU: 0xEFA8, offset: 0xEFA8, size: 0x8, addend: 0x0, symName: __ZNSt3__16vectorINS_12basic_stringIcNS_11char_traitsIcEENS_9allocatorIcEEEENS4_IS6_EEE21_ConstructTransactionD2B7v160006Ev, symObjAddr: 0x5DC0, symBinAddr: 0x100006A54, symSize: 0x20 }
  - { offsetInCU: 0xEFCF, offset: 0xEFCF, size: 0x8, addend: 0x0, symName: __ZNKSt3__16vectorINS_12basic_stringIcNS_11char_traitsIcEENS_9allocatorIcEEEENS4_IS6_EEE11__recommendB7v160006Em, symObjAddr: 0x5DE0, symBinAddr: 0x100006A74, symSize: 0xB4 }
  - { offsetInCU: 0xF023, offset: 0xF023, size: 0x8, addend: 0x0, symName: __ZNSt3__114__split_bufferINS_12basic_stringIcNS_11char_traitsIcEENS_9allocatorIcEEEERNS4_IS6_EEEC1EmmS8_, symObjAddr: 0x5E94, symBinAddr: 0x100006B28, symSize: 0x44 }
  - { offsetInCU: 0xF077, offset: 0xF077, size: 0x8, addend: 0x0, symName: __ZNSt3__114__split_bufferINS_12basic_stringIcNS_11char_traitsIcEENS_9allocatorIcEEEERNS4_IS6_EEED1Ev, symObjAddr: 0x5FF0, symBinAddr: 0x100006C84, symSize: 0x2C }
  - { offsetInCU: 0xF0A0, offset: 0xF0A0, size: 0x8, addend: 0x0, symName: __ZNKSt3__16vectorINS_12basic_stringIcNS_11char_traitsIcEENS_9allocatorIcEEEENS4_IS6_EEE8max_sizeEv, symObjAddr: 0x601C, symBinAddr: 0x100006CB0, symSize: 0x60 }
  - { offsetInCU: 0xF0C7, offset: 0xF0C7, size: 0x8, addend: 0x0, symName: __ZNKSt3__16vectorINS_12basic_stringIcNS_11char_traitsIcEENS_9allocatorIcEEEENS4_IS6_EEE20__throw_length_errorB7v160006Ev, symObjAddr: 0x607C, symBinAddr: 0x100006D10, symSize: 0x1C }
  - { offsetInCU: 0xF0F5, offset: 0xF0F5, size: 0x8, addend: 0x0, symName: __ZNSt3__116allocator_traitsINS_9allocatorINS_12basic_stringIcNS_11char_traitsIcEENS1_IcEEEEEEE8max_sizeB7v160006IS7_vEEmRKS7_, symObjAddr: 0x60C4, symBinAddr: 0x100006D58, symSize: 0x24 }
  - { offsetInCU: 0xF123, offset: 0xF123, size: 0x8, addend: 0x0, symName: __ZNKSt3__16vectorINS_12basic_stringIcNS_11char_traitsIcEENS_9allocatorIcEEEENS4_IS6_EEE7__allocB7v160006Ev, symObjAddr: 0x60E8, symBinAddr: 0x100006D7C, symSize: 0x28 }
  - { offsetInCU: 0xF147, offset: 0xF147, size: 0x8, addend: 0x0, symName: __ZNSt3__114numeric_limitsIlE3maxB7v160006Ev, symObjAddr: 0x6110, symBinAddr: 0x100006DA4, symSize: 0x14 }
  - { offsetInCU: 0xF15B, offset: 0xF15B, size: 0x8, addend: 0x0, symName: __ZNKSt3__19allocatorINS_12basic_stringIcNS_11char_traitsIcEENS0_IcEEEEE8max_sizeB7v160006Ev, symObjAddr: 0x6178, symBinAddr: 0x100006E0C, symSize: 0x18 }
  - { offsetInCU: 0xF180, offset: 0xF180, size: 0x8, addend: 0x0, symName: __ZNKSt3__117__compressed_pairIPNS_12basic_stringIcNS_11char_traitsIcEENS_9allocatorIcEEEENS4_IS6_EEE6secondB7v160006Ev, symObjAddr: 0x6190, symBinAddr: 0x100006E24, symSize: 0x24 }
  - { offsetInCU: 0xF1A4, offset: 0xF1A4, size: 0x8, addend: 0x0, symName: __ZNKSt3__122__compressed_pair_elemINS_9allocatorINS_12basic_stringIcNS_11char_traitsIcEENS1_IcEEEEEELi1ELb1EE5__getB7v160006Ev, symObjAddr: 0x61B4, symBinAddr: 0x100006E48, symSize: 0x14 }
  - { offsetInCU: 0xF1C9, offset: 0xF1C9, size: 0x8, addend: 0x0, symName: __ZNSt3__123__libcpp_numeric_limitsIlLb1EE3maxB7v160006Ev, symObjAddr: 0x61C8, symBinAddr: 0x100006E5C, symSize: 0x8 }
  - { offsetInCU: 0xF1DC, offset: 0xF1DC, size: 0x8, addend: 0x0, symName: __ZNSt12length_errorC1B7v160006EPKc, symObjAddr: 0x6234, symBinAddr: 0x100006EC8, symSize: 0x34 }
  - { offsetInCU: 0xF212, offset: 0xF212, size: 0x8, addend: 0x0, symName: __ZNSt12length_errorC2B7v160006EPKc, symObjAddr: 0x6268, symBinAddr: 0x100006EFC, symSize: 0x4C }
  - { offsetInCU: 0xF249, offset: 0xF249, size: 0x8, addend: 0x0, symName: __ZNSt3__114__split_bufferINS_12basic_stringIcNS_11char_traitsIcEENS_9allocatorIcEEEERNS4_IS6_EEEC2EmmS8_, symObjAddr: 0x62B4, symBinAddr: 0x100006F48, symSize: 0xE0 }
  - { offsetInCU: 0xF2B9, offset: 0xF2B9, size: 0x8, addend: 0x0, symName: __ZNSt3__117__compressed_pairIPNS_12basic_stringIcNS_11char_traitsIcEENS_9allocatorIcEEEERNS4_IS6_EEEC1B7v160006IDnS9_EEOT_OT0_, symObjAddr: 0x6394, symBinAddr: 0x100007028, symSize: 0x3C }
  - { offsetInCU: 0xF310, offset: 0xF310, size: 0x8, addend: 0x0, symName: __ZNSt3__114__split_bufferINS_12basic_stringIcNS_11char_traitsIcEENS_9allocatorIcEEEERNS4_IS6_EEE7__allocB7v160006Ev, symObjAddr: 0x6410, symBinAddr: 0x1000070A4, symSize: 0x28 }
  - { offsetInCU: 0xF334, offset: 0xF334, size: 0x8, addend: 0x0, symName: __ZNSt3__114__split_bufferINS_12basic_stringIcNS_11char_traitsIcEENS_9allocatorIcEEEERNS4_IS6_EEE9__end_capB7v160006Ev, symObjAddr: 0x6438, symBinAddr: 0x1000070CC, symSize: 0x28 }
  - { offsetInCU: 0xF357, offset: 0xF357, size: 0x8, addend: 0x0, symName: __ZNSt3__117__compressed_pairIPNS_12basic_stringIcNS_11char_traitsIcEENS_9allocatorIcEEEERNS4_IS6_EEEC2B7v160006IDnS9_EEOT_OT0_, symObjAddr: 0x6460, symBinAddr: 0x1000070F4, symSize: 0x48 }
  - { offsetInCU: 0xF3AE, offset: 0xF3AE, size: 0x8, addend: 0x0, symName: __ZNSt3__122__compressed_pair_elemIRNS_9allocatorINS_12basic_stringIcNS_11char_traitsIcEENS1_IcEEEEEELi1ELb0EEC2B7v160006IS8_vEEOT_, symObjAddr: 0x64A8, symBinAddr: 0x10000713C, symSize: 0x20 }
  - { offsetInCU: 0xF3EE, offset: 0xF3EE, size: 0x8, addend: 0x0, symName: __ZNSt3__19allocatorINS_12basic_stringIcNS_11char_traitsIcEENS0_IcEEEEE8allocateB7v160006Em, symObjAddr: 0x64C8, symBinAddr: 0x10000715C, symSize: 0x5C }
  - { offsetInCU: 0xF420, offset: 0xF420, size: 0x8, addend: 0x0, symName: __ZNSt3__117__compressed_pairIPNS_12basic_stringIcNS_11char_traitsIcEENS_9allocatorIcEEEERNS4_IS6_EEE6secondB7v160006Ev, symObjAddr: 0x6524, symBinAddr: 0x1000071B8, symSize: 0x28 }
  - { offsetInCU: 0xF444, offset: 0xF444, size: 0x8, addend: 0x0, symName: __ZNSt3__122__compressed_pair_elemIRNS_9allocatorINS_12basic_stringIcNS_11char_traitsIcEENS1_IcEEEEEELi1ELb0EE5__getB7v160006Ev, symObjAddr: 0x654C, symBinAddr: 0x1000071E0, symSize: 0x18 }
  - { offsetInCU: 0xF469, offset: 0xF469, size: 0x8, addend: 0x0, symName: __ZNSt3__117__compressed_pairIPNS_12basic_stringIcNS_11char_traitsIcEENS_9allocatorIcEEEERNS4_IS6_EEE5firstB7v160006Ev, symObjAddr: 0x6564, symBinAddr: 0x1000071F8, symSize: 0x24 }
  - { offsetInCU: 0xF48C, offset: 0xF48C, size: 0x8, addend: 0x0, symName: __ZNSt3__116reverse_iteratorIPNS_12basic_stringIcNS_11char_traitsIcEENS_9allocatorIcEEEEEC1B7v160006ES7_, symObjAddr: 0x66B4, symBinAddr: 0x100007348, symSize: 0x34 }
  - { offsetInCU: 0xF4C3, offset: 0xF4C3, size: 0x8, addend: 0x0, symName: __ZNKSt3__116reverse_iteratorIPNS_12basic_stringIcNS_11char_traitsIcEENS_9allocatorIcEEEEE4baseB7v160006Ev, symObjAddr: 0x66E8, symBinAddr: 0x10000737C, symSize: 0x18 }
  - { offsetInCU: 0xF4E8, offset: 0xF4E8, size: 0x8, addend: 0x0, symName: __ZNKSt3__16vectorINS_12basic_stringIcNS_11char_traitsIcEENS_9allocatorIcEEEENS4_IS6_EEE14__annotate_newB7v160006Em, symObjAddr: 0x673C, symBinAddr: 0x1000073D0, symSize: 0xC8 }
  - { offsetInCU: 0xF51A, offset: 0xF51A, size: 0x8, addend: 0x0, symName: __ZNSt3__129_AllocatorDestroyRangeReverseINS_9allocatorINS_12basic_stringIcNS_11char_traitsIcEENS1_IcEEEEEENS_16reverse_iteratorIPS6_EEEC1B7v160006ERS7_RSA_SD_, symObjAddr: 0x6860, symBinAddr: 0x1000074F4, symSize: 0x44 }
  - { offsetInCU: 0xF575, offset: 0xF575, size: 0x8, addend: 0x0, symName: __ZNSt3__116allocator_traitsINS_9allocatorINS_12basic_stringIcNS_11char_traitsIcEENS1_IcEEEEEEE9constructB7v160006IS6_JS6_EvEEvRS7_PT_DpOT0_, symObjAddr: 0x68EC, symBinAddr: 0x100007580, symSize: 0x34 }
  - { offsetInCU: 0xF5CC, offset: 0xF5CC, size: 0x8, addend: 0x0, symName: __ZNKSt3__116reverse_iteratorIPNS_12basic_stringIcNS_11char_traitsIcEENS_9allocatorIcEEEEEdeB7v160006Ev, symObjAddr: 0x6944, symBinAddr: 0x1000075D8, symSize: 0x28 }
  - { offsetInCU: 0xF5FF, offset: 0xF5FF, size: 0x8, addend: 0x0, symName: __ZNSt3__116reverse_iteratorIPNS_12basic_stringIcNS_11char_traitsIcEENS_9allocatorIcEEEEEppB7v160006Ev, symObjAddr: 0x696C, symBinAddr: 0x100007600, symSize: 0x20 }
  - { offsetInCU: 0xF624, offset: 0xF624, size: 0x8, addend: 0x0, symName: __ZNSt3__128__exception_guard_exceptionsINS_29_AllocatorDestroyRangeReverseINS_9allocatorINS_12basic_stringIcNS_11char_traitsIcEENS2_IcEEEEEENS_16reverse_iteratorIPS7_EEEEE10__completeB7v160006Ev, symObjAddr: 0x698C, symBinAddr: 0x100007620, symSize: 0x1C }
  - { offsetInCU: 0xF648, offset: 0xF648, size: 0x8, addend: 0x0, symName: __ZNSt3__128__exception_guard_exceptionsINS_29_AllocatorDestroyRangeReverseINS_9allocatorINS_12basic_stringIcNS_11char_traitsIcEENS2_IcEEEEEENS_16reverse_iteratorIPS7_EEEEED1B7v160006Ev, symObjAddr: 0x69A8, symBinAddr: 0x10000763C, symSize: 0x2C }
  - { offsetInCU: 0xF670, offset: 0xF670, size: 0x8, addend: 0x0, symName: __ZNSt3__128__exception_guard_exceptionsINS_29_AllocatorDestroyRangeReverseINS_9allocatorINS_12basic_stringIcNS_11char_traitsIcEENS2_IcEEEEEENS_16reverse_iteratorIPS7_EEEEEC1B7v160006ESC_, symObjAddr: 0x69D4, symBinAddr: 0x100007668, symSize: 0x34 }
  - { offsetInCU: 0xF6A8, offset: 0xF6A8, size: 0x8, addend: 0x0, symName: __ZNSt3__128__exception_guard_exceptionsINS_29_AllocatorDestroyRangeReverseINS_9allocatorINS_12basic_stringIcNS_11char_traitsIcEENS2_IcEEEEEENS_16reverse_iteratorIPS7_EEEEEC2B7v160006ESC_, symObjAddr: 0x6A08, symBinAddr: 0x10000769C, symSize: 0x30 }
  - { offsetInCU: 0xF6DF, offset: 0xF6DF, size: 0x8, addend: 0x0, symName: __ZNSt3__129_AllocatorDestroyRangeReverseINS_9allocatorINS_12basic_stringIcNS_11char_traitsIcEENS1_IcEEEEEENS_16reverse_iteratorIPS6_EEEC2B7v160006ERS7_RSA_SD_, symObjAddr: 0x6A38, symBinAddr: 0x1000076CC, symSize: 0x38 }
  - { offsetInCU: 0xF734, offset: 0xF734, size: 0x8, addend: 0x0, symName: __ZNSt3__19allocatorINS_12basic_stringIcNS_11char_traitsIcEENS0_IcEEEEE9constructB7v160006IS5_JS5_EEEvPT_DpOT0_, symObjAddr: 0x6A70, symBinAddr: 0x100007704, symSize: 0x30 }
  - { offsetInCU: 0xF787, offset: 0xF787, size: 0x8, addend: 0x0, symName: __ZNSt3__112basic_stringIcNS_11char_traitsIcEENS_9allocatorIcEEEC1B7v160006EOS5_, symObjAddr: 0x6AA0, symBinAddr: 0x100007734, symSize: 0x34 }
  - { offsetInCU: 0xF7BE, offset: 0xF7BE, size: 0x8, addend: 0x0, symName: __ZNSt3__112basic_stringIcNS_11char_traitsIcEENS_9allocatorIcEEEC2B7v160006EOS5_, symObjAddr: 0x6AD4, symBinAddr: 0x100007768, symSize: 0x84 }
  - { offsetInCU: 0xF7F6, offset: 0xF7F6, size: 0x8, addend: 0x0, symName: __ZNSt3__112basic_stringIcNS_11char_traitsIcEENS_9allocatorIcEEE14__default_initB7v160006Ev, symObjAddr: 0x6B58, symBinAddr: 0x1000077EC, symSize: 0x40 }
  - { offsetInCU: 0xF81A, offset: 0xF81A, size: 0x8, addend: 0x0, symName: __ZNSt3__117__compressed_pairINS_12basic_stringIcNS_11char_traitsIcEENS_9allocatorIcEEE5__repES5_E5firstB7v160006Ev, symObjAddr: 0x6BAC, symBinAddr: 0x100007840, symSize: 0x24 }
  - { offsetInCU: 0xF83E, offset: 0xF83E, size: 0x8, addend: 0x0, symName: __ZNSt3__122__compressed_pair_elemINS_12basic_stringIcNS_11char_traitsIcEENS_9allocatorIcEEE5__repELi0ELb0EE5__getB7v160006Ev, symObjAddr: 0x6BD0, symBinAddr: 0x100007864, symSize: 0x14 }
  - { offsetInCU: 0xF868, offset: 0xF868, size: 0x8, addend: 0x0, symName: __ZNSt3__119__to_address_helperINS_16reverse_iteratorIPNS_12basic_stringIcNS_11char_traitsIcEENS_9allocatorIcEEEEEEvE6__callB7v160006ERKS9_, symObjAddr: 0x6BE4, symBinAddr: 0x100007878, symSize: 0x38 }
  - { offsetInCU: 0xF88B, offset: 0xF88B, size: 0x8, addend: 0x0, symName: __ZNKSt3__116reverse_iteratorIPNS_12basic_stringIcNS_11char_traitsIcEENS_9allocatorIcEEEEEptB7v160006Ev, symObjAddr: 0x6C1C, symBinAddr: 0x1000078B0, symSize: 0x24 }
  - { offsetInCU: 0xF8AE, offset: 0xF8AE, size: 0x8, addend: 0x0, symName: __ZNSt3__128__exception_guard_exceptionsINS_29_AllocatorDestroyRangeReverseINS_9allocatorINS_12basic_stringIcNS_11char_traitsIcEENS2_IcEEEEEENS_16reverse_iteratorIPS7_EEEEED2B7v160006Ev, symObjAddr: 0x6C40, symBinAddr: 0x1000078D4, symSize: 0x50 }
  - { offsetInCU: 0xF8D7, offset: 0xF8D7, size: 0x8, addend: 0x0, symName: __ZNKSt3__129_AllocatorDestroyRangeReverseINS_9allocatorINS_12basic_stringIcNS_11char_traitsIcEENS1_IcEEEEEENS_16reverse_iteratorIPS6_EEEclB7v160006Ev, symObjAddr: 0x6C90, symBinAddr: 0x100007924, symSize: 0xB4 }
  - { offsetInCU: 0xF8FB, offset: 0xF8FB, size: 0x8, addend: 0x0, symName: __ZNSt3__116reverse_iteratorINS0_IPNS_12basic_stringIcNS_11char_traitsIcEENS_9allocatorIcEEEEEEEC1B7v160006ES8_, symObjAddr: 0x6DB4, symBinAddr: 0x100007A48, symSize: 0x3C }
  - { offsetInCU: 0xF932, offset: 0xF932, size: 0x8, addend: 0x0, symName: __ZNSt3__116reverse_iteratorINS0_IPNS_12basic_stringIcNS_11char_traitsIcEENS_9allocatorIcEEEEEEEppB7v160006Ev, symObjAddr: 0x6E74, symBinAddr: 0x100007B08, symSize: 0x30 }
  - { offsetInCU: 0xF956, offset: 0xF956, size: 0x8, addend: 0x0, symName: __ZNKSt3__116reverse_iteratorINS0_IPNS_12basic_stringIcNS_11char_traitsIcEENS_9allocatorIcEEEEEEE4baseB7v160006Ev, symObjAddr: 0x6EA4, symBinAddr: 0x100007B38, symSize: 0x24 }
  - { offsetInCU: 0xF980, offset: 0xF980, size: 0x8, addend: 0x0, symName: __ZNSt3__119__to_address_helperINS_16reverse_iteratorINS1_IPNS_12basic_stringIcNS_11char_traitsIcEENS_9allocatorIcEEEEEEEEvE6__callB7v160006ERKSA_, symObjAddr: 0x6EC8, symBinAddr: 0x100007B5C, symSize: 0x38 }
  - { offsetInCU: 0xF9A3, offset: 0xF9A3, size: 0x8, addend: 0x0, symName: __ZNKSt3__116reverse_iteratorINS0_IPNS_12basic_stringIcNS_11char_traitsIcEENS_9allocatorIcEEEEEEEptB7v160006Ev, symObjAddr: 0x6F00, symBinAddr: 0x100007B94, symSize: 0x24 }
  - { offsetInCU: 0xF9C7, offset: 0xF9C7, size: 0x8, addend: 0x0, symName: __ZNKSt3__116reverse_iteratorINS0_IPNS_12basic_stringIcNS_11char_traitsIcEENS_9allocatorIcEEEEEEEdeB7v160006Ev, symObjAddr: 0x6F24, symBinAddr: 0x100007BB8, symSize: 0x34 }
  - { offsetInCU: 0xF9F9, offset: 0xF9F9, size: 0x8, addend: 0x0, symName: __ZNSt3__116reverse_iteratorIPNS_12basic_stringIcNS_11char_traitsIcEENS_9allocatorIcEEEEEmmB7v160006Ev, symObjAddr: 0x6F58, symBinAddr: 0x100007BEC, symSize: 0x20 }
  - { offsetInCU: 0xFA1E, offset: 0xFA1E, size: 0x8, addend: 0x0, symName: __ZNSt3__116reverse_iteratorINS0_IPNS_12basic_stringIcNS_11char_traitsIcEENS_9allocatorIcEEEEEEEC2B7v160006ES8_, symObjAddr: 0x6F78, symBinAddr: 0x100007C0C, symSize: 0x2C }
  - { offsetInCU: 0xFA54, offset: 0xFA54, size: 0x8, addend: 0x0, symName: __ZNSt3__116reverse_iteratorIPNS_12basic_stringIcNS_11char_traitsIcEENS_9allocatorIcEEEEEC2B7v160006ES7_, symObjAddr: 0x6FA4, symBinAddr: 0x100007C38, symSize: 0x28 }
  - { offsetInCU: 0xFA8A, offset: 0xFA8A, size: 0x8, addend: 0x0, symName: __ZNSt3__114__split_bufferINS_12basic_stringIcNS_11char_traitsIcEENS_9allocatorIcEEEERNS4_IS6_EEED2Ev, symObjAddr: 0x6FCC, symBinAddr: 0x100007C60, symSize: 0x8C }
  - { offsetInCU: 0xFAB4, offset: 0xFAB4, size: 0x8, addend: 0x0, symName: __ZNSt3__114__split_bufferINS_12basic_stringIcNS_11char_traitsIcEENS_9allocatorIcEEEERNS4_IS6_EEE5clearB7v160006Ev, symObjAddr: 0x7058, symBinAddr: 0x100007CEC, symSize: 0x28 }
  - { offsetInCU: 0xFAD8, offset: 0xFAD8, size: 0x8, addend: 0x0, symName: __ZNKSt3__114__split_bufferINS_12basic_stringIcNS_11char_traitsIcEENS_9allocatorIcEEEERNS4_IS6_EEE8capacityB7v160006Ev, symObjAddr: 0x7080, symBinAddr: 0x100007D14, symSize: 0x40 }
  - { offsetInCU: 0xFAFC, offset: 0xFAFC, size: 0x8, addend: 0x0, symName: __ZNSt3__114__split_bufferINS_12basic_stringIcNS_11char_traitsIcEENS_9allocatorIcEEEERNS4_IS6_EEE17__destruct_at_endB7v160006EPS6_, symObjAddr: 0x70C0, symBinAddr: 0x100007D54, symSize: 0x2C }
  - { offsetInCU: 0xFB2D, offset: 0xFB2D, size: 0x8, addend: 0x0, symName: __ZNSt3__114__split_bufferINS_12basic_stringIcNS_11char_traitsIcEENS_9allocatorIcEEEERNS4_IS6_EEE17__destruct_at_endB7v160006EPS6_NS_17integral_constantIbLb0EEE, symObjAddr: 0x70EC, symBinAddr: 0x100007D80, symSize: 0x80 }
  - { offsetInCU: 0xFB6D, offset: 0xFB6D, size: 0x8, addend: 0x0, symName: __ZNKSt3__114__split_bufferINS_12basic_stringIcNS_11char_traitsIcEENS_9allocatorIcEEEERNS4_IS6_EEE9__end_capB7v160006Ev, symObjAddr: 0x716C, symBinAddr: 0x100007E00, symSize: 0x28 }
  - { offsetInCU: 0xFB91, offset: 0xFB91, size: 0x8, addend: 0x0, symName: __ZNKSt3__117__compressed_pairIPNS_12basic_stringIcNS_11char_traitsIcEENS_9allocatorIcEEEERNS4_IS6_EEE5firstB7v160006Ev, symObjAddr: 0x7194, symBinAddr: 0x100007E28, symSize: 0x24 }
  - { offsetInCU: 0x7750, offset: 0x17467, size: 0x8, addend: 0x0, symName: __ZNSt3__124__put_character_sequenceB7v160006IcNS_11char_traitsIcEEEERNS_13basic_ostreamIT_T0_EES7_PKS4_m, symObjAddr: 0x9D8C, symBinAddr: 0x10000BFA4, symSize: 0x1EC }
  - { offsetInCU: 0x9911, offset: 0x19628, size: 0x8, addend: 0x0, symName: '__ZNSt3__19remove_ifB7v160006INS_11__wrap_iterIPcEEZN11TokenStreamC1ERNS_12basic_stringIcNS_11char_traitsIcEENS_9allocatorIcEEEEE3$_0EET_SD_SD_T0_', symObjAddr: 0x950, symBinAddr: 0x100008770, symSize: 0x104 }
  - { offsetInCU: 0xA158, offset: 0x19E6F, size: 0x8, addend: 0x0, symName: __ZNSt3__1neB7v160006IPNS_12basic_stringIcNS_11char_traitsIcEENS_9allocatorIcEEEEEEbRKNS_11__wrap_iterIT_EESC_, symObjAddr: 0xE7C, symBinAddr: 0x100008B90, symSize: 0x34 }
  - { offsetInCU: 0xA19B, offset: 0x19EB2, size: 0x8, addend: 0x0, symName: __ZNSt3__19transformB7v160006INS_11__wrap_iterIPcEES3_PFiiEEET0_T_S7_S6_T1_, symObjAddr: 0xF58, symBinAddr: 0x100008C3C, symSize: 0x98 }
  - { offsetInCU: 0xA20C, offset: 0x19F23, size: 0x8, addend: 0x0, symName: __ZNSt3__1lsB7v160006INS_11char_traitsIcEEEERNS_13basic_ostreamIcT_EES6_PKc, symObjAddr: 0x1034, symBinAddr: 0x100008D18, symSize: 0x48 }
  - { offsetInCU: 0xA252, offset: 0x19F69, size: 0x8, addend: 0x0, symName: __ZNSt3__14endlB7v160006IcNS_11char_traitsIcEEEERNS_13basic_ostreamIT_T0_EES7_, symObjAddr: 0x10A8, symBinAddr: 0x100008D8C, symSize: 0x58 }
  - { offsetInCU: 0xA292, offset: 0x19FA9, size: 0x8, addend: 0x0, symName: __ZNSt3__1lsB7v160006IcNS_11char_traitsIcEENS_9allocatorIcEEEERNS_13basic_ostreamIT_T0_EES9_RKNS_12basic_stringIS6_S7_T1_EE, symObjAddr: 0x1100, symBinAddr: 0x100008DE4, symSize: 0x4C }
  - { offsetInCU: 0xA2EA, offset: 0x1A001, size: 0x8, addend: 0x0, symName: __ZNSt3__1lsB7v160006INS_11char_traitsIcEEEERNS_13basic_ostreamIcT_EES6_c, symObjAddr: 0x114C, symBinAddr: 0x100008E30, symSize: 0x34 }
  - { offsetInCU: 0xA330, offset: 0x1A047, size: 0x8, addend: 0x0, symName: __ZNSt3__1eqB7v160006IPNS_12basic_stringIcNS_11char_traitsIcEENS_9allocatorIcEEEEEEbRKNS_11__wrap_iterIT_EESC_, symObjAddr: 0x16BC, symBinAddr: 0x1000091D8, symSize: 0x48 }
  - { offsetInCU: 0xA373, offset: 0x1A08A, size: 0x8, addend: 0x0, symName: __ZNSt3__119__debug_db_insert_cB7v160006INS_13unordered_setIcNS_4hashIcEENS_8equal_toIcEENS_9allocatorIcEEEEEEvPT_, symObjAddr: 0x2144, symBinAddr: 0x10000934C, symSize: 0x10 }
  - { offsetInCU: 0xA3F5, offset: 0x1A10C, size: 0x8, addend: 0x0, symName: __ZNSt3__125__debug_db_invalidate_allB7v160006INS_12__hash_tableIcNS_4hashIcEENS_8equal_toIcEENS_9allocatorIcEEEEEEvPT_, symObjAddr: 0x3DC0, symBinAddr: 0x10000ACC8, symSize: 0x10 }
  - { offsetInCU: 0xA426, offset: 0x1A13D, size: 0x8, addend: 0x0, symName: __ZNSt3__118__debug_db_erase_cB7v160006INS_12__hash_tableIcNS_4hashIcEENS_8equal_toIcEENS_9allocatorIcEEEEEEvPT_, symObjAddr: 0x4544, symBinAddr: 0x10000B3A8, symSize: 0x10 }
  - { offsetInCU: 0xA48A, offset: 0x1A1A1, size: 0x8, addend: 0x0, symName: '__ZNSt3__17find_ifB7v160006INS_11__wrap_iterIPcEERZN11TokenStreamC1ERNS_12basic_stringIcNS_11char_traitsIcEENS_9allocatorIcEEEEE3$_0EET_SE_SE_T0_', symObjAddr: 0x48B4, symBinAddr: 0x10000B5F8, symSize: 0x84 }
  - { offsetInCU: 0xA4E5, offset: 0x1A1FC, size: 0x8, addend: 0x0, symName: __ZNSt3__1neB7v160006IPcEEbRKNS_11__wrap_iterIT_EES6_, symObjAddr: 0x4938, symBinAddr: 0x10000B67C, symSize: 0x34 }
  - { offsetInCU: 0xA528, offset: 0x1A23F, size: 0x8, addend: 0x0, symName: __ZNSt3__1eqB7v160006IPcEEbRKNS_11__wrap_iterIT_EES6_, symObjAddr: 0x49E4, symBinAddr: 0x10000B728, symSize: 0x48 }
  - { offsetInCU: 0xA56B, offset: 0x1A282, size: 0x8, addend: 0x0, symName: __ZNSt3__1neB7v160006ERKNS_21__hash_const_iteratorIPNS_11__hash_nodeIcPvEEEES7_, symObjAddr: 0x4ABC, symBinAddr: 0x10000B800, symSize: 0x34 }
  - { offsetInCU: 0xA5A8, offset: 0x1A2BF, size: 0x8, addend: 0x0, symName: __ZNSt3__1eqB7v160006ERKNS_21__hash_const_iteratorIPNS_11__hash_nodeIcPvEEEES7_, symObjAddr: 0x4CE0, symBinAddr: 0x10000BA24, symSize: 0x30 }
  - { offsetInCU: 0xA5E5, offset: 0x1A2FC, size: 0x8, addend: 0x0, symName: __ZNSt3__1miB7v160006IPKcPcEEDTmicldtfp_4baseEcldtfp0_4baseEERKNS_11__wrap_iterIT_EERKNS5_IT0_EE, symObjAddr: 0x4E30, symBinAddr: 0x10000BB74, symSize: 0x40 }
  - { offsetInCU: 0xA631, offset: 0x1A348, size: 0x8, addend: 0x0, symName: __ZNSt3__1miB7v160006IPKcS2_EEDTmicldtfp_4baseEcldtfp0_4baseEERKNS_11__wrap_iterIT_EERKNS4_IT0_EE, symObjAddr: 0x4E70, symBinAddr: 0x10000BBB4, symSize: 0x40 }
  - { offsetInCU: 0xA67D, offset: 0x1A394, size: 0x8, addend: 0x0, symName: __ZNSt3__125__debug_db_invalidate_allB7v160006INS_12basic_stringIcNS_11char_traitsIcEENS_9allocatorIcEEEEEEvPT_, symObjAddr: 0x6588, symBinAddr: 0x10000BC70, symSize: 0x10 }
  - { offsetInCU: 0xA6AE, offset: 0x1A3C5, size: 0x8, addend: 0x0, symName: __ZNSt3__116__pad_and_outputB7v160006IcNS_11char_traitsIcEEEENS_19ostreambuf_iteratorIT_T0_EES6_PKS4_S8_S8_RNS_8ios_baseES4_, symObjAddr: 0x9F94, symBinAddr: 0x10000C1AC, symSize: 0x240 }
  - { offsetInCU: 0xA77D, offset: 0x1A494, size: 0x8, addend: 0x0, symName: __ZNSt3__112__to_addressB7v160006IcEEPT_S2_, symObjAddr: 0xA37C, symBinAddr: 0x10000C594, symSize: 0x14 }
  - { offsetInCU: 0xA7B2, offset: 0x1A4C9, size: 0x8, addend: 0x0, symName: __ZNSt3__19use_facetB7v160006INS_5ctypeIcEEEERKT_RKNS_6localeE, symObjAddr: 0xA4D4, symBinAddr: 0x10000C6EC, symSize: 0x2C }
  - { offsetInCU: 0xCBBF, offset: 0x1C8D6, size: 0x8, addend: 0x0, symName: __Z7isspacei, symObjAddr: 0xB84, symBinAddr: 0x1000089A4, symSize: 0x28 }
  - { offsetInCU: 0xCC19, offset: 0x1C930, size: 0x8, addend: 0x0, symName: __Z7toloweri, symObjAddr: 0xFF0, symBinAddr: 0x100008CD4, symSize: 0x24 }
  - { offsetInCU: 0xD428, offset: 0x1D13F, size: 0x8, addend: 0x0, symName: __ZN11TokenStreamC2ERNSt3__112basic_stringIcNS0_11char_traitsIcEENS0_9allocatorIcEEEE, symObjAddr: 0x0, symBinAddr: 0x100007E4C, symSize: 0x824 }
  - { offsetInCU: 0xD553, offset: 0x1D26A, size: 0x8, addend: 0x0, symName: __ZNSt3__112basic_stringIcNS_11char_traitsIcEENS_9allocatorIcEEEC1B7v160006Ev, symObjAddr: 0x850, symBinAddr: 0x100008670, symSize: 0x2C }
  - { offsetInCU: 0xD5D5, offset: 0x1D2EC, size: 0x8, addend: 0x0, symName: __ZNSt3__113unordered_setIcNS_4hashIcEENS_8equal_toIcEENS_9allocatorIcEEEC1ESt16initializer_listIcE, symObjAddr: 0x87C, symBinAddr: 0x10000869C, symSize: 0x3C }
  - { offsetInCU: 0xD60E, offset: 0x1D325, size: 0x8, addend: 0x0, symName: __ZNSt3__112basic_stringIcNS_11char_traitsIcEENS_9allocatorIcEEE5eraseB7v160006ENS_11__wrap_iterIPKcEES9_, symObjAddr: 0x8B8, symBinAddr: 0x1000086D8, symSize: 0x98 }
  - { offsetInCU: 0xD670, offset: 0x1D387, size: 0x8, addend: 0x0, symName: __ZNSt3__112basic_stringIcNS_11char_traitsIcEENS_9allocatorIcEEE5beginB7v160006Ev, symObjAddr: 0xA54, symBinAddr: 0x100008874, symSize: 0x4C }
  - { offsetInCU: 0xD694, offset: 0x1D3AB, size: 0x8, addend: 0x0, symName: __ZNSt3__112basic_stringIcNS_11char_traitsIcEENS_9allocatorIcEEE3endB7v160006Ev, symObjAddr: 0xAA0, symBinAddr: 0x1000088C0, symSize: 0x54 }
  - { offsetInCU: 0xD6C2, offset: 0x1D3D9, size: 0x8, addend: 0x0, symName: __ZNSt3__111__wrap_iterIPKcEC1B7v160006IPcEERKNS0_IT_EEPNS_9enable_ifIXsr14is_convertibleIS6_S2_EE5valueEvE4typeE, symObjAddr: 0xAF4, symBinAddr: 0x100008914, symSize: 0x3C }
  - { offsetInCU: 0xD70C, offset: 0x1D423, size: 0x8, addend: 0x0, symName: __ZNKSt3__112basic_stringIcNS_11char_traitsIcEENS_9allocatorIcEEE6lengthB7v160006Ev, symObjAddr: 0xB30, symBinAddr: 0x100008950, symSize: 0x24 }
  - { offsetInCU: 0xD730, offset: 0x1D447, size: 0x8, addend: 0x0, symName: __ZNSt3__112basic_stringIcNS_11char_traitsIcEENS_9allocatorIcEEEixB7v160006Em, symObjAddr: 0xB54, symBinAddr: 0x100008974, symSize: 0x30 }
  - { offsetInCU: 0xD763, offset: 0x1D47A, size: 0x8, addend: 0x0, symName: __ZNSt3__112basic_stringIcNS_11char_traitsIcEENS_9allocatorIcEEE5clearB7v160006Ev, symObjAddr: 0xC48, symBinAddr: 0x1000089CC, symSize: 0x88 }
  - { offsetInCU: 0xD789, offset: 0x1D4A0, size: 0x8, addend: 0x0, symName: __ZNSt3__16vectorINS_12basic_stringIcNS_11char_traitsIcEENS_9allocatorIcEEEENS4_IS6_EEE9push_backB7v160006EOS6_, symObjAddr: 0xCD0, symBinAddr: 0x100008A54, symSize: 0x6C }
  - { offsetInCU: 0xD7BE, offset: 0x1D4D5, size: 0x8, addend: 0x0, symName: __ZNSt3__112basic_stringIcNS_11char_traitsIcEENS_9allocatorIcEEEC1B7v160006Emc, symObjAddr: 0xD3C, symBinAddr: 0x100008AC0, symSize: 0x3C }
  - { offsetInCU: 0xD804, offset: 0x1D51B, size: 0x8, addend: 0x0, symName: __ZNSt3__112basic_stringIcNS_11char_traitsIcEENS_9allocatorIcEEEpLB7v160006Ec, symObjAddr: 0xD78, symBinAddr: 0x100008AFC, symSize: 0x34 }
  - { offsetInCU: 0xD896, offset: 0x1D5AD, size: 0x8, addend: 0x0, symName: __ZNSt3__16vectorINS_12basic_stringIcNS_11char_traitsIcEENS_9allocatorIcEEEENS4_IS6_EEE5beginB7v160006Ev, symObjAddr: 0xE1C, symBinAddr: 0x100008B30, symSize: 0x30 }
  - { offsetInCU: 0xD8BC, offset: 0x1D5D3, size: 0x8, addend: 0x0, symName: __ZNSt3__16vectorINS_12basic_stringIcNS_11char_traitsIcEENS_9allocatorIcEEEENS4_IS6_EEE3endB7v160006Ev, symObjAddr: 0xE4C, symBinAddr: 0x100008B60, symSize: 0x30 }
  - { offsetInCU: 0xD8E2, offset: 0x1D5F9, size: 0x8, addend: 0x0, symName: __ZNKSt3__111__wrap_iterIPNS_12basic_stringIcNS_11char_traitsIcEENS_9allocatorIcEEEEEdeB7v160006Ev, symObjAddr: 0xEB0, symBinAddr: 0x100008BC4, symSize: 0x18 }
  - { offsetInCU: 0xD907, offset: 0x1D61E, size: 0x8, addend: 0x0, symName: __ZNKSt3__113unordered_setINS_12basic_stringIcNS_11char_traitsIcEENS_9allocatorIcEEEENS_4hashIS6_EENS_8equal_toIS6_EENS4_IS6_EEE4findB7v160006ERKS6_, symObjAddr: 0xEF8, symBinAddr: 0x100008BDC, symSize: 0x34 }
  - { offsetInCU: 0xD93A, offset: 0x1D651, size: 0x8, addend: 0x0, symName: __ZNKSt3__113unordered_setINS_12basic_stringIcNS_11char_traitsIcEENS_9allocatorIcEEEENS_4hashIS6_EENS_8equal_toIS6_EENS4_IS6_EEE3endB7v160006Ev, symObjAddr: 0xF2C, symBinAddr: 0x100008C10, symSize: 0x2C }
  - { offsetInCU: 0xD95E, offset: 0x1D675, size: 0x8, addend: 0x0, symName: __ZNSt3__111__wrap_iterIPNS_12basic_stringIcNS_11char_traitsIcEENS_9allocatorIcEEEEEppB7v160006Ev, symObjAddr: 0x1014, symBinAddr: 0x100008CF8, symSize: 0x20 }
  - { offsetInCU: 0xD983, offset: 0x1D69A, size: 0x8, addend: 0x0, symName: __ZNSt3__113basic_ostreamIcNS_11char_traitsIcEEElsB7v160006EPFRS3_S4_E, symObjAddr: 0x107C, symBinAddr: 0x100008D60, symSize: 0x2C }
  - { offsetInCU: 0xD9B5, offset: 0x1D6CC, size: 0x8, addend: 0x0, symName: __ZNSt3__113unordered_setIcNS_4hashIcEENS_8equal_toIcEENS_9allocatorIcEEED1B7v160006Ev, symObjAddr: 0x11AC, symBinAddr: 0x100008E64, symSize: 0x2C }
  - { offsetInCU: 0xD9DD, offset: 0x1D6F4, size: 0x8, addend: 0x0, symName: __ZN11TokenStreamC1ERNSt3__112basic_stringIcNS0_11char_traitsIcEENS0_9allocatorIcEEEE, symObjAddr: 0x1204, symBinAddr: 0x100008E90, symSize: 0x34 }
  - { offsetInCU: 0xDA40, offset: 0x1D757, size: 0x8, addend: 0x0, symName: __ZN11TokenStream5MatchERKNSt3__112basic_stringIcNS0_11char_traitsIcEENS0_9allocatorIcEEEE, symObjAddr: 0x1238, symBinAddr: 0x100008EC4, symSize: 0xA4 }
  - { offsetInCU: 0xDA74, offset: 0x1D78B, size: 0x8, addend: 0x0, symName: __ZNSt3__16vectorINS_12basic_stringIcNS_11char_traitsIcEENS_9allocatorIcEEEENS4_IS6_EEEixB7v160006Em, symObjAddr: 0x144C, symBinAddr: 0x100008F68, symSize: 0x2C }
  - { offsetInCU: 0xDAAA, offset: 0x1D7C1, size: 0x8, addend: 0x0, symName: __ZN11TokenStream7GetWordEv, symObjAddr: 0x1478, symBinAddr: 0x100008F94, symSize: 0x84 }
  - { offsetInCU: 0xDAD0, offset: 0x1D7E7, size: 0x8, addend: 0x0, symName: __ZN11TokenStream4PeekEv, symObjAddr: 0x14FC, symBinAddr: 0x100009018, symSize: 0x7C }
  - { offsetInCU: 0xDAF6, offset: 0x1D80D, size: 0x8, addend: 0x0, symName: __ZNK11TokenStream11AllConsumedEv, symObjAddr: 0x1578, symBinAddr: 0x100009094, symSize: 0x3C }
  - { offsetInCU: 0xDB1C, offset: 0x1D833, size: 0x8, addend: 0x0, symName: __ZNSt3__111__wrap_iterIPKcEC2B7v160006IPcEERKNS0_IT_EEPNS_9enable_ifIXsr14is_convertibleIS6_S2_EE5valueEvE4typeE, symObjAddr: 0x15B4, symBinAddr: 0x1000090D0, symSize: 0x40 }
  - { offsetInCU: 0xDB66, offset: 0x1D87D, size: 0x8, addend: 0x0, symName: __ZNKSt3__111__wrap_iterIPcE4baseB7v160006Ev, symObjAddr: 0x15F4, symBinAddr: 0x100009110, symSize: 0x18 }
  - { offsetInCU: 0xDB8A, offset: 0x1D8A1, size: 0x8, addend: 0x0, symName: __Z8__istypeim, symObjAddr: 0x160C, symBinAddr: 0x100009128, symSize: 0x8C }
  - { offsetInCU: 0xDBC4, offset: 0x1D8DB, size: 0x8, addend: 0x0, symName: __Z7isasciii, symObjAddr: 0x1698, symBinAddr: 0x1000091B4, symSize: 0x24 }
  - { offsetInCU: 0xDBF1, offset: 0x1D908, size: 0x8, addend: 0x0, symName: __ZNKSt3__111__wrap_iterIPNS_12basic_stringIcNS_11char_traitsIcEENS_9allocatorIcEEEEE4baseB7v160006Ev, symObjAddr: 0x1704, symBinAddr: 0x100009220, symSize: 0x18 }
  - { offsetInCU: 0xDC1B, offset: 0x1D932, size: 0x8, addend: 0x0, symName: __ZNSt3__112basic_stringIcNS_11char_traitsIcEENS_9allocatorIcEEEC2B7v160006Ev, symObjAddr: 0x1EB0, symBinAddr: 0x100009238, symSize: 0x54 }
  - { offsetInCU: 0xDC43, offset: 0x1D95A, size: 0x8, addend: 0x0, symName: __ZNSt3__113unordered_setIcNS_4hashIcEENS_8equal_toIcEENS_9allocatorIcEEEC2ESt16initializer_listIcE, symObjAddr: 0x2084, symBinAddr: 0x10000928C, symSize: 0x94 }
  - { offsetInCU: 0xDC7C, offset: 0x1D993, size: 0x8, addend: 0x0, symName: __ZNSt3__112__hash_tableIcNS_4hashIcEENS_8equal_toIcEENS_9allocatorIcEEEC1Ev, symObjAddr: 0x2118, symBinAddr: 0x100009320, symSize: 0x2C }
  - { offsetInCU: 0xDCA6, offset: 0x1D9BD, size: 0x8, addend: 0x0, symName: __ZNSt3__113unordered_setIcNS_4hashIcEENS_8equal_toIcEENS_9allocatorIcEEE6insertIPKcEEvT_SB_, symObjAddr: 0x2154, symBinAddr: 0x10000935C, symSize: 0x70 }
  - { offsetInCU: 0xDCF3, offset: 0x1DA0A, size: 0x8, addend: 0x0, symName: __ZNKSt16initializer_listIcE5beginB7v160006Ev, symObjAddr: 0x21C4, symBinAddr: 0x1000093CC, symSize: 0x18 }
  - { offsetInCU: 0xDD18, offset: 0x1DA2F, size: 0x8, addend: 0x0, symName: __ZNKSt16initializer_listIcE3endB7v160006Ev, symObjAddr: 0x21DC, symBinAddr: 0x1000093E4, symSize: 0x20 }
  - { offsetInCU: 0xDD3D, offset: 0x1DA54, size: 0x8, addend: 0x0, symName: __ZNSt3__112__hash_tableIcNS_4hashIcEENS_8equal_toIcEENS_9allocatorIcEEED1Ev, symObjAddr: 0x21FC, symBinAddr: 0x100009404, symSize: 0x2C }
  - { offsetInCU: 0xDD67, offset: 0x1DA7E, size: 0x8, addend: 0x0, symName: __ZNSt3__112__hash_tableIcNS_4hashIcEENS_8equal_toIcEENS_9allocatorIcEEEC2Ev, symObjAddr: 0x2228, symBinAddr: 0x100009430, symSize: 0x7C }
  - { offsetInCU: 0xDD91, offset: 0x1DAA8, size: 0x8, addend: 0x0, symName: __ZNSt3__110unique_ptrIA_PNS_16__hash_node_baseIPNS_11__hash_nodeIcPvEEEENS_25__bucket_list_deallocatorINS_9allocatorIS7_EEEEEC1B7v160006ILb1EvEEv, symObjAddr: 0x22A4, symBinAddr: 0x1000094AC, symSize: 0x2C }
  - { offsetInCU: 0xDDC4, offset: 0x1DADB, size: 0x8, addend: 0x0, symName: __ZNSt3__117__compressed_pairINS_16__hash_node_baseIPNS_11__hash_nodeIcPvEEEENS_9allocatorIS4_EEEC1B7v160006ILb1EvEEv, symObjAddr: 0x22D0, symBinAddr: 0x1000094D8, symSize: 0x2C }
  - { offsetInCU: 0xDDFC, offset: 0x1DB13, size: 0x8, addend: 0x0, symName: __ZNSt3__117__compressed_pairImNS_4hashIcEEEC1B7v160006IiNS_18__default_init_tagEEEOT_OT0_, symObjAddr: 0x22FC, symBinAddr: 0x100009504, symSize: 0x3C }
  - { offsetInCU: 0xDE57, offset: 0x1DB6E, size: 0x8, addend: 0x0, symName: __ZNSt3__117__compressed_pairIfNS_8equal_toIcEEEC1B7v160006IfNS_18__default_init_tagEEEOT_OT0_, symObjAddr: 0x2338, symBinAddr: 0x100009540, symSize: 0x3C }
  - { offsetInCU: 0xDEAD, offset: 0x1DBC4, size: 0x8, addend: 0x0, symName: __ZNSt3__110unique_ptrIA_PNS_16__hash_node_baseIPNS_11__hash_nodeIcPvEEEENS_25__bucket_list_deallocatorINS_9allocatorIS7_EEEEEC2B7v160006ILb1EvEEv, symObjAddr: 0x2374, symBinAddr: 0x10000957C, symSize: 0x3C }
  - { offsetInCU: 0xDEE5, offset: 0x1DBFC, size: 0x8, addend: 0x0, symName: __ZNSt3__117__compressed_pairIPPNS_16__hash_node_baseIPNS_11__hash_nodeIcPvEEEENS_25__bucket_list_deallocatorINS_9allocatorIS7_EEEEEC1B7v160006INS_16__value_init_tagESF_EEOT_OT0_, symObjAddr: 0x23B0, symBinAddr: 0x1000095B8, symSize: 0x3C }
  - { offsetInCU: 0xDF3B, offset: 0x1DC52, size: 0x8, addend: 0x0, symName: __ZNSt3__117__compressed_pairIPPNS_16__hash_node_baseIPNS_11__hash_nodeIcPvEEEENS_25__bucket_list_deallocatorINS_9allocatorIS7_EEEEEC2B7v160006INS_16__value_init_tagESF_EEOT_OT0_, symObjAddr: 0x23EC, symBinAddr: 0x1000095F4, symSize: 0x40 }
  - { offsetInCU: 0xDF91, offset: 0x1DCA8, size: 0x8, addend: 0x0, symName: __ZNSt3__122__compressed_pair_elemIPPNS_16__hash_node_baseIPNS_11__hash_nodeIcPvEEEELi0ELb0EEC2B7v160006ENS_16__value_init_tagE, symObjAddr: 0x242C, symBinAddr: 0x100009634, symSize: 0x18 }
  - { offsetInCU: 0xDFC4, offset: 0x1DCDB, size: 0x8, addend: 0x0, symName: __ZNSt3__122__compressed_pair_elemINS_25__bucket_list_deallocatorINS_9allocatorIPNS_16__hash_node_baseIPNS_11__hash_nodeIcPvEEEEEEEELi1ELb0EEC2B7v160006ENS_16__value_init_tagE, symObjAddr: 0x2444, symBinAddr: 0x10000964C, symSize: 0x2C }
  - { offsetInCU: 0xDFF7, offset: 0x1DD0E, size: 0x8, addend: 0x0, symName: __ZNSt3__125__bucket_list_deallocatorINS_9allocatorIPNS_16__hash_node_baseIPNS_11__hash_nodeIcPvEEEEEEEC1B7v160006Ev, symObjAddr: 0x2470, symBinAddr: 0x100009678, symSize: 0x2C }
  - { offsetInCU: 0xE01F, offset: 0x1DD36, size: 0x8, addend: 0x0, symName: __ZNSt3__125__bucket_list_deallocatorINS_9allocatorIPNS_16__hash_node_baseIPNS_11__hash_nodeIcPvEEEEEEEC2B7v160006Ev, symObjAddr: 0x249C, symBinAddr: 0x1000096A4, symSize: 0x40 }
  - { offsetInCU: 0xE047, offset: 0x1DD5E, size: 0x8, addend: 0x0, symName: __ZNSt3__117__compressed_pairImNS_9allocatorIPNS_16__hash_node_baseIPNS_11__hash_nodeIcPvEEEEEEEC1B7v160006IiNS_18__default_init_tagEEEOT_OT0_, symObjAddr: 0x24DC, symBinAddr: 0x1000096E4, symSize: 0x3C }
  - { offsetInCU: 0xE09D, offset: 0x1DDB4, size: 0x8, addend: 0x0, symName: __ZNSt3__117__compressed_pairImNS_9allocatorIPNS_16__hash_node_baseIPNS_11__hash_nodeIcPvEEEEEEEC2B7v160006IiNS_18__default_init_tagEEEOT_OT0_, symObjAddr: 0x2518, symBinAddr: 0x100009720, symSize: 0x40 }
  - { offsetInCU: 0xE0F3, offset: 0x1DE0A, size: 0x8, addend: 0x0, symName: __ZNSt3__122__compressed_pair_elemINS_9allocatorIPNS_16__hash_node_baseIPNS_11__hash_nodeIcPvEEEEEELi1ELb1EEC2B7v160006ENS_18__default_init_tagE, symObjAddr: 0x257C, symBinAddr: 0x100009760, symSize: 0x2C }
  - { offsetInCU: 0xE126, offset: 0x1DE3D, size: 0x8, addend: 0x0, symName: __ZNSt3__19allocatorIPNS_16__hash_node_baseIPNS_11__hash_nodeIcPvEEEEEC2B7v160006Ev, symObjAddr: 0x25A8, symBinAddr: 0x10000978C, symSize: 0x2C }
  - { offsetInCU: 0xE14E, offset: 0x1DE65, size: 0x8, addend: 0x0, symName: __ZNSt3__116__non_trivial_ifILb1ENS_9allocatorIPNS_16__hash_node_baseIPNS_11__hash_nodeIcPvEEEEEEEC2B7v160006Ev, symObjAddr: 0x25D4, symBinAddr: 0x1000097B8, symSize: 0x14 }
  - { offsetInCU: 0xE176, offset: 0x1DE8D, size: 0x8, addend: 0x0, symName: __ZNSt3__117__compressed_pairINS_16__hash_node_baseIPNS_11__hash_nodeIcPvEEEENS_9allocatorIS4_EEEC2B7v160006ILb1EvEEv, symObjAddr: 0x25E8, symBinAddr: 0x1000097CC, symSize: 0x34 }
  - { offsetInCU: 0xE1A9, offset: 0x1DEC0, size: 0x8, addend: 0x0, symName: __ZNSt3__122__compressed_pair_elemINS_16__hash_node_baseIPNS_11__hash_nodeIcPvEEEELi0ELb0EEC2B7v160006ENS_16__value_init_tagE, symObjAddr: 0x261C, symBinAddr: 0x100009800, symSize: 0x2C }
  - { offsetInCU: 0xE1DC, offset: 0x1DEF3, size: 0x8, addend: 0x0, symName: __ZNSt3__122__compressed_pair_elemINS_9allocatorINS_11__hash_nodeIcPvEEEELi1ELb1EEC2B7v160006ENS_16__value_init_tagE, symObjAddr: 0x2648, symBinAddr: 0x10000982C, symSize: 0x2C }
  - { offsetInCU: 0xE20F, offset: 0x1DF26, size: 0x8, addend: 0x0, symName: __ZNSt3__116__hash_node_baseIPNS_11__hash_nodeIcPvEEEC1B7v160006Ev, symObjAddr: 0x2674, symBinAddr: 0x100009858, symSize: 0x2C }
  - { offsetInCU: 0xE237, offset: 0x1DF4E, size: 0x8, addend: 0x0, symName: __ZNSt3__116__hash_node_baseIPNS_11__hash_nodeIcPvEEEC2B7v160006Ev, symObjAddr: 0x26A0, symBinAddr: 0x100009884, symSize: 0x18 }
  - { offsetInCU: 0xE25F, offset: 0x1DF76, size: 0x8, addend: 0x0, symName: __ZNSt3__19allocatorINS_11__hash_nodeIcPvEEEC2B7v160006Ev, symObjAddr: 0x26B8, symBinAddr: 0x10000989C, symSize: 0x2C }
  - { offsetInCU: 0xE287, offset: 0x1DF9E, size: 0x8, addend: 0x0, symName: __ZNSt3__116__non_trivial_ifILb1ENS_9allocatorINS_11__hash_nodeIcPvEEEEEC2B7v160006Ev, symObjAddr: 0x26E4, symBinAddr: 0x1000098C8, symSize: 0x14 }
  - { offsetInCU: 0xE2AF, offset: 0x1DFC6, size: 0x8, addend: 0x0, symName: __ZNSt3__117__compressed_pairImNS_4hashIcEEEC2B7v160006IiNS_18__default_init_tagEEEOT_OT0_, symObjAddr: 0x26F8, symBinAddr: 0x1000098DC, symSize: 0x40 }
  - { offsetInCU: 0xE305, offset: 0x1E01C, size: 0x8, addend: 0x0, symName: __ZNSt3__122__compressed_pair_elemINS_4hashIcEELi1ELb1EEC2B7v160006ENS_18__default_init_tagE, symObjAddr: 0x2738, symBinAddr: 0x10000991C, symSize: 0x14 }
  - { offsetInCU: 0xE338, offset: 0x1E04F, size: 0x8, addend: 0x0, symName: __ZNSt3__117__compressed_pairIfNS_8equal_toIcEEEC2B7v160006IfNS_18__default_init_tagEEEOT_OT0_, symObjAddr: 0x274C, symBinAddr: 0x100009930, symSize: 0x40 }
  - { offsetInCU: 0xE38E, offset: 0x1E0A5, size: 0x8, addend: 0x0, symName: __ZNSt3__122__compressed_pair_elemINS_8equal_toIcEELi1ELb1EEC2B7v160006ENS_18__default_init_tagE, symObjAddr: 0x27B0, symBinAddr: 0x100009970, symSize: 0x14 }
  - { offsetInCU: 0xE3C1, offset: 0x1E0D8, size: 0x8, addend: 0x0, symName: __ZNSt3__112__hash_tableIcNS_4hashIcEENS_8equal_toIcEENS_9allocatorIcEEE15__insert_uniqueB7v160006ERKc, symObjAddr: 0x27C4, symBinAddr: 0x100009984, symSize: 0x50 }
  - { offsetInCU: 0xE3F4, offset: 0x1E10B, size: 0x8, addend: 0x0, symName: __ZNSt3__112__hash_tableIcNS_4hashIcEENS_8equal_toIcEENS_9allocatorIcEEE25__emplace_unique_key_argsIcJRKcEEENS_4pairINS_15__hash_iteratorIPNS_11__hash_nodeIcPvEEEEbEERKT_DpOT0_, symObjAddr: 0x2814, symBinAddr: 0x1000099D4, symSize: 0x4C4 }
  - { offsetInCU: 0xE4D2, offset: 0x1E1E9, size: 0x8, addend: 0x0, symName: __ZNSt3__122__hash_key_value_typesIcE9__get_keyB7v160006ERKc, symObjAddr: 0x2CD8, symBinAddr: 0x100009E98, symSize: 0x14 }
  - { offsetInCU: 0xE4F5, offset: 0x1E20C, size: 0x8, addend: 0x0, symName: __ZNSt3__112__hash_tableIcNS_4hashIcEENS_8equal_toIcEENS_9allocatorIcEEE13hash_functionB7v160006Ev, symObjAddr: 0x2CEC, symBinAddr: 0x100009EAC, symSize: 0x28 }
  - { offsetInCU: 0xE519, offset: 0x1E230, size: 0x8, addend: 0x0, symName: __ZNKSt3__14hashIcEclB7v160006Ec, symObjAddr: 0x2D14, symBinAddr: 0x100009ED4, symSize: 0x18 }
  - { offsetInCU: 0xE54D, offset: 0x1E264, size: 0x8, addend: 0x0, symName: __ZNKSt3__112__hash_tableIcNS_4hashIcEENS_8equal_toIcEENS_9allocatorIcEEE12bucket_countB7v160006Ev, symObjAddr: 0x2D2C, symBinAddr: 0x100009EEC, symSize: 0x28 }
  - { offsetInCU: 0xE571, offset: 0x1E288, size: 0x8, addend: 0x0, symName: __ZNKSt3__110unique_ptrIA_PNS_16__hash_node_baseIPNS_11__hash_nodeIcPvEEEENS_25__bucket_list_deallocatorINS_9allocatorIS7_EEEEEixB7v160006Em, symObjAddr: 0x2DEC, symBinAddr: 0x100009F14, symSize: 0x34 }
  - { offsetInCU: 0xE5A4, offset: 0x1E2BB, size: 0x8, addend: 0x0, symName: __ZNKSt3__116__hash_node_baseIPNS_11__hash_nodeIcPvEEE6__hashB7v160006Ev, symObjAddr: 0x2E20, symBinAddr: 0x100009F48, symSize: 0x18 }
  - { offsetInCU: 0xE5C9, offset: 0x1E2E0, size: 0x8, addend: 0x0, symName: __ZNSt3__112__hash_tableIcNS_4hashIcEENS_8equal_toIcEENS_9allocatorIcEEE6key_eqB7v160006Ev, symObjAddr: 0x2E38, symBinAddr: 0x100009F60, symSize: 0x28 }
  - { offsetInCU: 0xE5ED, offset: 0x1E304, size: 0x8, addend: 0x0, symName: __ZNKSt3__18equal_toIcEclB7v160006ERKcS3_, symObjAddr: 0x2E60, symBinAddr: 0x100009F88, symSize: 0x34 }
  - { offsetInCU: 0xE630, offset: 0x1E347, size: 0x8, addend: 0x0, symName: __ZNSt3__116__hash_node_baseIPNS_11__hash_nodeIcPvEEE8__upcastB7v160006Ev, symObjAddr: 0x2E94, symBinAddr: 0x100009FBC, symSize: 0x24 }
  - { offsetInCU: 0xE654, offset: 0x1E36B, size: 0x8, addend: 0x0, symName: __ZNSt3__112__hash_tableIcNS_4hashIcEENS_8equal_toIcEENS_9allocatorIcEEE21__construct_node_hashIRKcJEEENS_10unique_ptrINS_11__hash_nodeIcPvEENS_22__hash_node_destructorINS5_ISE_EEEEEEmOT_DpOT0_, symObjAddr: 0x2EB8, symBinAddr: 0x100009FE0, symSize: 0x140 }
  - { offsetInCU: 0xE6C5, offset: 0x1E3DC, size: 0x8, addend: 0x0, symName: __ZNSt3__112__hash_tableIcNS_4hashIcEENS_8equal_toIcEENS_9allocatorIcEEE4sizeB7v160006Ev, symObjAddr: 0x2FF8, symBinAddr: 0x10000A120, symSize: 0x28 }
  - { offsetInCU: 0xE6E9, offset: 0x1E400, size: 0x8, addend: 0x0, symName: __ZNSt3__112__hash_tableIcNS_4hashIcEENS_8equal_toIcEENS_9allocatorIcEEE15max_load_factorB7v160006Ev, symObjAddr: 0x3020, symBinAddr: 0x10000A148, symSize: 0x28 }
  - { offsetInCU: 0xE70D, offset: 0x1E424, size: 0x8, addend: 0x0, symName: __ZNSt3__112__hash_tableIcNS_4hashIcEENS_8equal_toIcEENS_9allocatorIcEEE15__rehash_uniqueB7v160006Em, symObjAddr: 0x3048, symBinAddr: 0x10000A170, symSize: 0x2C }
  - { offsetInCU: 0xE740, offset: 0x1E457, size: 0x8, addend: 0x0, symName: __ZNSt3__117__compressed_pairINS_16__hash_node_baseIPNS_11__hash_nodeIcPvEEEENS_9allocatorIS4_EEE5firstB7v160006Ev, symObjAddr: 0x3108, symBinAddr: 0x10000A19C, symSize: 0x24 }
  - { offsetInCU: 0xE764, offset: 0x1E47B, size: 0x8, addend: 0x0, symName: __ZNSt3__116__hash_node_baseIPNS_11__hash_nodeIcPvEEE5__ptrB7v160006Ev, symObjAddr: 0x312C, symBinAddr: 0x10000A1C0, symSize: 0x24 }
  - { offsetInCU: 0xE788, offset: 0x1E49F, size: 0x8, addend: 0x0, symName: __ZNKSt3__110unique_ptrINS_11__hash_nodeIcPvEENS_22__hash_node_destructorINS_9allocatorIS3_EEEEEptB7v160006Ev, symObjAddr: 0x3150, symBinAddr: 0x10000A1E4, symSize: 0x28 }
  - { offsetInCU: 0xE7AC, offset: 0x1E4C3, size: 0x8, addend: 0x0, symName: __ZNKSt3__110unique_ptrINS_11__hash_nodeIcPvEENS_22__hash_node_destructorINS_9allocatorIS3_EEEEE3getB7v160006Ev, symObjAddr: 0x3178, symBinAddr: 0x10000A20C, symSize: 0x28 }
  - { offsetInCU: 0xE7D0, offset: 0x1E4E7, size: 0x8, addend: 0x0, symName: __ZNSt3__110unique_ptrINS_11__hash_nodeIcPvEENS_22__hash_node_destructorINS_9allocatorIS3_EEEEE7releaseB7v160006Ev, symObjAddr: 0x31A0, symBinAddr: 0x10000A234, symSize: 0x44 }
  - { offsetInCU: 0xE803, offset: 0x1E51A, size: 0x8, addend: 0x0, symName: __ZNSt3__110unique_ptrINS_11__hash_nodeIcPvEENS_22__hash_node_destructorINS_9allocatorIS3_EEEEED1B7v160006Ev, symObjAddr: 0x31E4, symBinAddr: 0x10000A278, symSize: 0x2C }
  - { offsetInCU: 0xE82B, offset: 0x1E542, size: 0x8, addend: 0x0, symName: __ZNSt3__115__hash_iteratorIPNS_11__hash_nodeIcPvEEEC1B7v160006EPNS_16__hash_node_baseIS4_EEPKv, symObjAddr: 0x3210, symBinAddr: 0x10000A2A4, symSize: 0x3C }
  - { offsetInCU: 0xE87B, offset: 0x1E592, size: 0x8, addend: 0x0, symName: __ZNSt3__14pairINS_15__hash_iteratorIPNS_11__hash_nodeIcPvEEEEbEC1B7v160006IS6_RbLS3_0EEEOT_OT0_, symObjAddr: 0x324C, symBinAddr: 0x10000A2E0, symSize: 0x3C }
  - { offsetInCU: 0xE8D7, offset: 0x1E5EE, size: 0x8, addend: 0x0, symName: __ZNSt3__117__compressed_pairImNS_4hashIcEEE6secondB7v160006Ev, symObjAddr: 0x3288, symBinAddr: 0x10000A31C, symSize: 0x24 }
  - { offsetInCU: 0xE8FB, offset: 0x1E612, size: 0x8, addend: 0x0, symName: __ZNSt3__122__compressed_pair_elemINS_4hashIcEELi1ELb1EE5__getB7v160006Ev, symObjAddr: 0x32AC, symBinAddr: 0x10000A340, symSize: 0x14 }
  - { offsetInCU: 0xE920, offset: 0x1E637, size: 0x8, addend: 0x0, symName: __ZNKSt3__110unique_ptrIA_PNS_16__hash_node_baseIPNS_11__hash_nodeIcPvEEEENS_25__bucket_list_deallocatorINS_9allocatorIS7_EEEEE11get_deleterB7v160006Ev, symObjAddr: 0x32C0, symBinAddr: 0x10000A354, symSize: 0x24 }
  - { offsetInCU: 0xE944, offset: 0x1E65B, size: 0x8, addend: 0x0, symName: __ZNKSt3__125__bucket_list_deallocatorINS_9allocatorIPNS_16__hash_node_baseIPNS_11__hash_nodeIcPvEEEEEEE4sizeB7v160006Ev, symObjAddr: 0x32E4, symBinAddr: 0x10000A378, symSize: 0x28 }
  - { offsetInCU: 0xE968, offset: 0x1E67F, size: 0x8, addend: 0x0, symName: __ZNKSt3__117__compressed_pairIPPNS_16__hash_node_baseIPNS_11__hash_nodeIcPvEEEENS_25__bucket_list_deallocatorINS_9allocatorIS7_EEEEE6secondB7v160006Ev, symObjAddr: 0x330C, symBinAddr: 0x10000A3A0, symSize: 0x28 }
  - { offsetInCU: 0xE98C, offset: 0x1E6A3, size: 0x8, addend: 0x0, symName: __ZNKSt3__122__compressed_pair_elemINS_25__bucket_list_deallocatorINS_9allocatorIPNS_16__hash_node_baseIPNS_11__hash_nodeIcPvEEEEEEEELi1ELb0EE5__getB7v160006Ev, symObjAddr: 0x3334, symBinAddr: 0x10000A3C8, symSize: 0x14 }
  - { offsetInCU: 0xE9B1, offset: 0x1E6C8, size: 0x8, addend: 0x0, symName: __ZNKSt3__117__compressed_pairImNS_9allocatorIPNS_16__hash_node_baseIPNS_11__hash_nodeIcPvEEEEEEE5firstB7v160006Ev, symObjAddr: 0x3348, symBinAddr: 0x10000A3DC, symSize: 0x24 }
  - { offsetInCU: 0xE9D5, offset: 0x1E6EC, size: 0x8, addend: 0x0, symName: __ZNKSt3__117__compressed_pairIPPNS_16__hash_node_baseIPNS_11__hash_nodeIcPvEEEENS_25__bucket_list_deallocatorINS_9allocatorIS7_EEEEE5firstB7v160006Ev, symObjAddr: 0x3380, symBinAddr: 0x10000A400, symSize: 0x24 }
  - { offsetInCU: 0xE9F9, offset: 0x1E710, size: 0x8, addend: 0x0, symName: __ZNKSt3__122__compressed_pair_elemIPPNS_16__hash_node_baseIPNS_11__hash_nodeIcPvEEEELi0ELb0EE5__getB7v160006Ev, symObjAddr: 0x33A4, symBinAddr: 0x10000A424, symSize: 0x14 }
  - { offsetInCU: 0xEA1E, offset: 0x1E735, size: 0x8, addend: 0x0, symName: __ZNSt3__117__compressed_pairIfNS_8equal_toIcEEE6secondB7v160006Ev, symObjAddr: 0x33B8, symBinAddr: 0x10000A438, symSize: 0x24 }
  - { offsetInCU: 0xEA42, offset: 0x1E759, size: 0x8, addend: 0x0, symName: __ZNSt3__122__compressed_pair_elemINS_8equal_toIcEELi1ELb1EE5__getB7v160006Ev, symObjAddr: 0x33DC, symBinAddr: 0x10000A45C, symSize: 0x14 }
  - { offsetInCU: 0xEA67, offset: 0x1E77E, size: 0x8, addend: 0x0, symName: __ZNSt3__114pointer_traitsIPNS_16__hash_node_baseIPNS_11__hash_nodeIcPvEEEEE10pointer_toB7v160006ERS6_, symObjAddr: 0x33F0, symBinAddr: 0x10000A470, symSize: 0x14 }
  - { offsetInCU: 0xEA8A, offset: 0x1E7A1, size: 0x8, addend: 0x0, symName: __ZNSt3__112__hash_tableIcNS_4hashIcEENS_8equal_toIcEENS_9allocatorIcEEE12__node_allocB7v160006Ev, symObjAddr: 0x3404, symBinAddr: 0x10000A484, symSize: 0x28 }
  - { offsetInCU: 0xEAAE, offset: 0x1E7C5, size: 0x8, addend: 0x0, symName: __ZNSt3__116allocator_traitsINS_9allocatorINS_11__hash_nodeIcPvEEEEE8allocateB7v160006ERS5_m, symObjAddr: 0x342C, symBinAddr: 0x10000A4AC, symSize: 0x2C }
  - { offsetInCU: 0xEAE1, offset: 0x1E7F8, size: 0x8, addend: 0x0, symName: __ZNSt3__122__hash_node_destructorINS_9allocatorINS_11__hash_nodeIcPvEEEEEC1B7v160006ERS5_b, symObjAddr: 0x3458, symBinAddr: 0x10000A4D8, symSize: 0x48 }
  - { offsetInCU: 0xEB2C, offset: 0x1E843, size: 0x8, addend: 0x0, symName: __ZNSt3__110unique_ptrINS_11__hash_nodeIcPvEENS_22__hash_node_destructorINS_9allocatorIS3_EEEEEC1B7v160006ILb1EvEEPS3_NS_16__dependent_typeINS_27__unique_ptr_deleter_sfinaeIS7_EEXT_EE20__good_rval_ref_typeE, symObjAddr: 0x34A0, symBinAddr: 0x10000A520, symSize: 0x3C }
  - { offsetInCU: 0xEB7B, offset: 0x1E892, size: 0x8, addend: 0x0, symName: __ZNSt3__116allocator_traitsINS_9allocatorINS_11__hash_nodeIcPvEEEEE9constructB7v160006IcJRKcEvEEvRS5_PT_DpOT0_, symObjAddr: 0x34DC, symBinAddr: 0x10000A55C, symSize: 0x34 }
  - { offsetInCU: 0xEBD2, offset: 0x1E8E9, size: 0x8, addend: 0x0, symName: __ZNSt3__122__hash_key_value_typesIcE9__get_ptrB7v160006ERc, symObjAddr: 0x3510, symBinAddr: 0x10000A590, symSize: 0x14 }
  - { offsetInCU: 0xEBF5, offset: 0x1E90C, size: 0x8, addend: 0x0, symName: __ZNSt3__110unique_ptrINS_11__hash_nodeIcPvEENS_22__hash_node_destructorINS_9allocatorIS3_EEEEE11get_deleterB7v160006Ev, symObjAddr: 0x3524, symBinAddr: 0x10000A5A4, symSize: 0x24 }
  - { offsetInCU: 0xEC19, offset: 0x1E930, size: 0x8, addend: 0x0, symName: __ZNSt3__117__compressed_pairINS_16__hash_node_baseIPNS_11__hash_nodeIcPvEEEENS_9allocatorIS4_EEE6secondB7v160006Ev, symObjAddr: 0x3548, symBinAddr: 0x10000A5C8, symSize: 0x24 }
  - { offsetInCU: 0xEC3D, offset: 0x1E954, size: 0x8, addend: 0x0, symName: __ZNSt3__122__compressed_pair_elemINS_9allocatorINS_11__hash_nodeIcPvEEEELi1ELb1EE5__getB7v160006Ev, symObjAddr: 0x356C, symBinAddr: 0x10000A5EC, symSize: 0x14 }
  - { offsetInCU: 0xEC62, offset: 0x1E979, size: 0x8, addend: 0x0, symName: __ZNSt3__19allocatorINS_11__hash_nodeIcPvEEE8allocateB7v160006Em, symObjAddr: 0x3580, symBinAddr: 0x10000A600, symSize: 0x5C }
  - { offsetInCU: 0xEC9E, offset: 0x1E9B5, size: 0x8, addend: 0x0, symName: __ZNSt3__116allocator_traitsINS_9allocatorINS_11__hash_nodeIcPvEEEEE8max_sizeB7v160006IS5_vEEmRKS5_, symObjAddr: 0x35DC, symBinAddr: 0x10000A65C, symSize: 0x24 }
  - { offsetInCU: 0xECCC, offset: 0x1E9E3, size: 0x8, addend: 0x0, symName: __ZNKSt3__19allocatorINS_11__hash_nodeIcPvEEE8max_sizeB7v160006Ev, symObjAddr: 0x3694, symBinAddr: 0x10000A680, symSize: 0x18 }
  - { offsetInCU: 0xECF1, offset: 0x1EA08, size: 0x8, addend: 0x0, symName: __ZNSt3__122__hash_node_destructorINS_9allocatorINS_11__hash_nodeIcPvEEEEEC2B7v160006ERS5_b, symObjAddr: 0x36FC, symBinAddr: 0x10000A698, symSize: 0x38 }
  - { offsetInCU: 0xED37, offset: 0x1EA4E, size: 0x8, addend: 0x0, symName: __ZNSt3__110unique_ptrINS_11__hash_nodeIcPvEENS_22__hash_node_destructorINS_9allocatorIS3_EEEEEC2B7v160006ILb1EvEEPS3_NS_16__dependent_typeINS_27__unique_ptr_deleter_sfinaeIS7_EEXT_EE20__good_rval_ref_typeE, symObjAddr: 0x3734, symBinAddr: 0x10000A6D0, symSize: 0x48 }
  - { offsetInCU: 0xED86, offset: 0x1EA9D, size: 0x8, addend: 0x0, symName: __ZNSt3__117__compressed_pairIPNS_11__hash_nodeIcPvEENS_22__hash_node_destructorINS_9allocatorIS3_EEEEEC1B7v160006IRS4_S8_EEOT_OT0_, symObjAddr: 0x377C, symBinAddr: 0x10000A718, symSize: 0x3C }
  - { offsetInCU: 0xEDDC, offset: 0x1EAF3, size: 0x8, addend: 0x0, symName: __ZNSt3__117__compressed_pairIPNS_11__hash_nodeIcPvEENS_22__hash_node_destructorINS_9allocatorIS3_EEEEEC2B7v160006IRS4_S8_EEOT_OT0_, symObjAddr: 0x37B8, symBinAddr: 0x10000A754, symSize: 0x48 }
  - { offsetInCU: 0xEE32, offset: 0x1EB49, size: 0x8, addend: 0x0, symName: __ZNSt3__122__compressed_pair_elemIPNS_11__hash_nodeIcPvEELi0ELb0EEC2B7v160006IRS4_vEEOT_, symObjAddr: 0x3800, symBinAddr: 0x10000A79C, symSize: 0x24 }
  - { offsetInCU: 0xEE72, offset: 0x1EB89, size: 0x8, addend: 0x0, symName: __ZNSt3__122__compressed_pair_elemINS_22__hash_node_destructorINS_9allocatorINS_11__hash_nodeIcPvEEEEEELi1ELb0EEC2B7v160006IS7_vEEOT_, symObjAddr: 0x3824, symBinAddr: 0x10000A7C0, symSize: 0x24 }
  - { offsetInCU: 0xEEB2, offset: 0x1EBC9, size: 0x8, addend: 0x0, symName: __ZNSt3__19allocatorINS_11__hash_nodeIcPvEEE9constructB7v160006IcJRKcEEEvPT_DpOT0_, symObjAddr: 0x3848, symBinAddr: 0x10000A7E4, symSize: 0x28 }
  - { offsetInCU: 0xEF07, offset: 0x1EC1E, size: 0x8, addend: 0x0, symName: __ZNSt3__117__compressed_pairIPNS_11__hash_nodeIcPvEENS_22__hash_node_destructorINS_9allocatorIS3_EEEEE6secondB7v160006Ev, symObjAddr: 0x3870, symBinAddr: 0x10000A80C, symSize: 0x28 }
  - { offsetInCU: 0xEF2B, offset: 0x1EC42, size: 0x8, addend: 0x0, symName: __ZNSt3__122__compressed_pair_elemINS_22__hash_node_destructorINS_9allocatorINS_11__hash_nodeIcPvEEEEEELi1ELb0EE5__getB7v160006Ev, symObjAddr: 0x3898, symBinAddr: 0x10000A834, symSize: 0x14 }
  - { offsetInCU: 0xEF50, offset: 0x1EC67, size: 0x8, addend: 0x0, symName: __ZNSt3__117__compressed_pairImNS_4hashIcEEE5firstB7v160006Ev, symObjAddr: 0x38AC, symBinAddr: 0x10000A848, symSize: 0x24 }
  - { offsetInCU: 0xEF74, offset: 0x1EC8B, size: 0x8, addend: 0x0, symName: __ZNSt3__117__compressed_pairIfNS_8equal_toIcEEE5firstB7v160006Ev, symObjAddr: 0x38E4, symBinAddr: 0x10000A86C, symSize: 0x24 }
  - { offsetInCU: 0xEF98, offset: 0x1ECAF, size: 0x8, addend: 0x0, symName: __ZNSt3__112__hash_tableIcNS_4hashIcEENS_8equal_toIcEENS_9allocatorIcEEE8__rehashILb1EEEvm, symObjAddr: 0x391C, symBinAddr: 0x10000A890, symSize: 0x1A8 }
  - { offsetInCU: 0xEFE6, offset: 0x1ECFD, size: 0x8, addend: 0x0, symName: __ZNSt3__112__hash_tableIcNS_4hashIcEENS_8equal_toIcEENS_9allocatorIcEEE11__do_rehashILb1EEEvm, symObjAddr: 0x3AC4, symBinAddr: 0x10000AA38, symSize: 0x290 }
  - { offsetInCU: 0xF0C7, offset: 0x1EDDE, size: 0x8, addend: 0x0, symName: __ZNSt3__110unique_ptrIA_PNS_16__hash_node_baseIPNS_11__hash_nodeIcPvEEEENS_25__bucket_list_deallocatorINS_9allocatorIS7_EEEEE11get_deleterB7v160006Ev, symObjAddr: 0x3DD0, symBinAddr: 0x10000ACD8, symSize: 0x24 }
  - { offsetInCU: 0xF0EB, offset: 0x1EE02, size: 0x8, addend: 0x0, symName: __ZNSt3__125__bucket_list_deallocatorINS_9allocatorIPNS_16__hash_node_baseIPNS_11__hash_nodeIcPvEEEEEEE7__allocB7v160006Ev, symObjAddr: 0x3DF4, symBinAddr: 0x10000ACFC, symSize: 0x24 }
  - { offsetInCU: 0xF10F, offset: 0x1EE26, size: 0x8, addend: 0x0, symName: __ZNSt3__110unique_ptrIA_PNS_16__hash_node_baseIPNS_11__hash_nodeIcPvEEEENS_25__bucket_list_deallocatorINS_9allocatorIS7_EEEEE5resetB7v160006IPS7_EENS_9enable_ifIXsr28_CheckArrayPointerConversionIT_EE5valueEvE4typeESH_, symObjAddr: 0x3E18, symBinAddr: 0x10000AD20, symSize: 0x78 }
  - { offsetInCU: 0xF15A, offset: 0x1EE71, size: 0x8, addend: 0x0, symName: __ZNSt3__116allocator_traitsINS_9allocatorIPNS_16__hash_node_baseIPNS_11__hash_nodeIcPvEEEEEEE8allocateB7v160006ERS9_m, symObjAddr: 0x3E90, symBinAddr: 0x10000AD98, symSize: 0x2C }
  - { offsetInCU: 0xF18D, offset: 0x1EEA4, size: 0x8, addend: 0x0, symName: __ZNSt3__125__bucket_list_deallocatorINS_9allocatorIPNS_16__hash_node_baseIPNS_11__hash_nodeIcPvEEEEEEE4sizeB7v160006Ev, symObjAddr: 0x3EBC, symBinAddr: 0x10000ADC4, symSize: 0x24 }
  - { offsetInCU: 0xF1B1, offset: 0x1EEC8, size: 0x8, addend: 0x0, symName: __ZNSt3__117__compressed_pairIPPNS_16__hash_node_baseIPNS_11__hash_nodeIcPvEEEENS_25__bucket_list_deallocatorINS_9allocatorIS7_EEEEE6secondB7v160006Ev, symObjAddr: 0x3EE0, symBinAddr: 0x10000ADE8, symSize: 0x28 }
  - { offsetInCU: 0xF1D5, offset: 0x1EEEC, size: 0x8, addend: 0x0, symName: __ZNSt3__122__compressed_pair_elemINS_25__bucket_list_deallocatorINS_9allocatorIPNS_16__hash_node_baseIPNS_11__hash_nodeIcPvEEEEEEEELi1ELb0EE5__getB7v160006Ev, symObjAddr: 0x3F08, symBinAddr: 0x10000AE10, symSize: 0x14 }
  - { offsetInCU: 0xF1FA, offset: 0x1EF11, size: 0x8, addend: 0x0, symName: __ZNSt3__117__compressed_pairImNS_9allocatorIPNS_16__hash_node_baseIPNS_11__hash_nodeIcPvEEEEEEE6secondB7v160006Ev, symObjAddr: 0x3F1C, symBinAddr: 0x10000AE24, symSize: 0x24 }
  - { offsetInCU: 0xF21E, offset: 0x1EF35, size: 0x8, addend: 0x0, symName: __ZNSt3__122__compressed_pair_elemINS_9allocatorIPNS_16__hash_node_baseIPNS_11__hash_nodeIcPvEEEEEELi1ELb1EE5__getB7v160006Ev, symObjAddr: 0x3F40, symBinAddr: 0x10000AE48, symSize: 0x14 }
  - { offsetInCU: 0xF243, offset: 0x1EF5A, size: 0x8, addend: 0x0, symName: __ZNSt3__117__compressed_pairIPPNS_16__hash_node_baseIPNS_11__hash_nodeIcPvEEEENS_25__bucket_list_deallocatorINS_9allocatorIS7_EEEEE5firstB7v160006Ev, symObjAddr: 0x3F54, symBinAddr: 0x10000AE5C, symSize: 0x24 }
  - { offsetInCU: 0xF267, offset: 0x1EF7E, size: 0x8, addend: 0x0, symName: __ZNSt3__125__bucket_list_deallocatorINS_9allocatorIPNS_16__hash_node_baseIPNS_11__hash_nodeIcPvEEEEEEEclB7v160006EPS8_, symObjAddr: 0x3F78, symBinAddr: 0x10000AE80, symSize: 0x58 }
  - { offsetInCU: 0xF29A, offset: 0x1EFB1, size: 0x8, addend: 0x0, symName: __ZNSt3__122__compressed_pair_elemIPPNS_16__hash_node_baseIPNS_11__hash_nodeIcPvEEEELi0ELb0EE5__getB7v160006Ev, symObjAddr: 0x3FD0, symBinAddr: 0x10000AED8, symSize: 0x14 }
  - { offsetInCU: 0xF2BF, offset: 0x1EFD6, size: 0x8, addend: 0x0, symName: __ZNSt3__116allocator_traitsINS_9allocatorIPNS_16__hash_node_baseIPNS_11__hash_nodeIcPvEEEEEEE10deallocateB7v160006ERS9_PS8_m, symObjAddr: 0x3FE4, symBinAddr: 0x10000AEEC, symSize: 0x34 }
  - { offsetInCU: 0xF301, offset: 0x1F018, size: 0x8, addend: 0x0, symName: __ZNSt3__19allocatorIPNS_16__hash_node_baseIPNS_11__hash_nodeIcPvEEEEE10deallocateB7v160006EPS7_m, symObjAddr: 0x4018, symBinAddr: 0x10000AF20, symSize: 0x40 }
  - { offsetInCU: 0xF341, offset: 0x1F058, size: 0x8, addend: 0x0, symName: __ZNSt3__19allocatorIPNS_16__hash_node_baseIPNS_11__hash_nodeIcPvEEEEE8allocateB7v160006Em, symObjAddr: 0x4058, symBinAddr: 0x10000AF60, symSize: 0x58 }
  - { offsetInCU: 0xF37D, offset: 0x1F094, size: 0x8, addend: 0x0, symName: __ZNSt3__116allocator_traitsINS_9allocatorIPNS_16__hash_node_baseIPNS_11__hash_nodeIcPvEEEEEEE8max_sizeB7v160006IS9_vEEmRKS9_, symObjAddr: 0x40B0, symBinAddr: 0x10000AFB8, symSize: 0x24 }
  - { offsetInCU: 0xF3AB, offset: 0x1F0C2, size: 0x8, addend: 0x0, symName: __ZNKSt3__19allocatorIPNS_16__hash_node_baseIPNS_11__hash_nodeIcPvEEEEE8max_sizeB7v160006Ev, symObjAddr: 0x40D4, symBinAddr: 0x10000AFDC, symSize: 0x14 }
  - { offsetInCU: 0xF3D0, offset: 0x1F0E7, size: 0x8, addend: 0x0, symName: __ZNSt3__117__compressed_pairImNS_9allocatorIPNS_16__hash_node_baseIPNS_11__hash_nodeIcPvEEEEEEE5firstB7v160006Ev, symObjAddr: 0x40E8, symBinAddr: 0x10000AFF0, symSize: 0x24 }
  - { offsetInCU: 0xF3F4, offset: 0x1F10B, size: 0x8, addend: 0x0, symName: __ZNSt3__122__compressed_pair_elemINS_16__hash_node_baseIPNS_11__hash_nodeIcPvEEEELi0ELb0EE5__getB7v160006Ev, symObjAddr: 0x41B0, symBinAddr: 0x10000B014, symSize: 0x14 }
  - { offsetInCU: 0xF419, offset: 0x1F130, size: 0x8, addend: 0x0, symName: __ZNKSt3__117__compressed_pairIPNS_11__hash_nodeIcPvEENS_22__hash_node_destructorINS_9allocatorIS3_EEEEE5firstB7v160006Ev, symObjAddr: 0x41C4, symBinAddr: 0x10000B028, symSize: 0x24 }
  - { offsetInCU: 0xF43D, offset: 0x1F154, size: 0x8, addend: 0x0, symName: __ZNKSt3__122__compressed_pair_elemIPNS_11__hash_nodeIcPvEELi0ELb0EE5__getB7v160006Ev, symObjAddr: 0x41E8, symBinAddr: 0x10000B04C, symSize: 0x14 }
  - { offsetInCU: 0xF462, offset: 0x1F179, size: 0x8, addend: 0x0, symName: __ZNSt3__117__compressed_pairIPNS_11__hash_nodeIcPvEENS_22__hash_node_destructorINS_9allocatorIS3_EEEEE5firstB7v160006Ev, symObjAddr: 0x41FC, symBinAddr: 0x10000B060, symSize: 0x24 }
  - { offsetInCU: 0xF486, offset: 0x1F19D, size: 0x8, addend: 0x0, symName: __ZNSt3__122__compressed_pair_elemIPNS_11__hash_nodeIcPvEELi0ELb0EE5__getB7v160006Ev, symObjAddr: 0x4220, symBinAddr: 0x10000B084, symSize: 0x14 }
  - { offsetInCU: 0xF4AB, offset: 0x1F1C2, size: 0x8, addend: 0x0, symName: __ZNSt3__110unique_ptrINS_11__hash_nodeIcPvEENS_22__hash_node_destructorINS_9allocatorIS3_EEEEED2B7v160006Ev, symObjAddr: 0x4234, symBinAddr: 0x10000B098, symSize: 0x30 }
  - { offsetInCU: 0xF4D3, offset: 0x1F1EA, size: 0x8, addend: 0x0, symName: __ZNSt3__110unique_ptrINS_11__hash_nodeIcPvEENS_22__hash_node_destructorINS_9allocatorIS3_EEEEE5resetB7v160006EPS3_, symObjAddr: 0x4264, symBinAddr: 0x10000B0C8, symSize: 0x78 }
  - { offsetInCU: 0xF515, offset: 0x1F22C, size: 0x8, addend: 0x0, symName: __ZNSt3__122__hash_node_destructorINS_9allocatorINS_11__hash_nodeIcPvEEEEEclB7v160006EPS4_, symObjAddr: 0x42DC, symBinAddr: 0x10000B140, symSize: 0x90 }
  - { offsetInCU: 0xF548, offset: 0x1F25F, size: 0x8, addend: 0x0, symName: __ZNSt3__116allocator_traitsINS_9allocatorINS_11__hash_nodeIcPvEEEEE7destroyB7v160006IcvvEEvRS5_PT_, symObjAddr: 0x436C, symBinAddr: 0x10000B1D0, symSize: 0x14 }
  - { offsetInCU: 0xF583, offset: 0x1F29A, size: 0x8, addend: 0x0, symName: __ZNSt3__116allocator_traitsINS_9allocatorINS_11__hash_nodeIcPvEEEEE10deallocateB7v160006ERS5_PS4_m, symObjAddr: 0x4380, symBinAddr: 0x10000B1E4, symSize: 0x34 }
  - { offsetInCU: 0xF5C5, offset: 0x1F2DC, size: 0x8, addend: 0x0, symName: __ZNSt3__19allocatorINS_11__hash_nodeIcPvEEE10deallocateB7v160006EPS3_m, symObjAddr: 0x43B4, symBinAddr: 0x10000B218, symSize: 0x44 }
  - { offsetInCU: 0xF605, offset: 0x1F31C, size: 0x8, addend: 0x0, symName: __ZNSt3__115__hash_iteratorIPNS_11__hash_nodeIcPvEEEC2B7v160006EPNS_16__hash_node_baseIS4_EEPKv, symObjAddr: 0x43F8, symBinAddr: 0x10000B25C, symSize: 0x24 }
  - { offsetInCU: 0xF64B, offset: 0x1F362, size: 0x8, addend: 0x0, symName: __ZNSt3__14pairINS_15__hash_iteratorIPNS_11__hash_nodeIcPvEEEEbEC2B7v160006IS6_RbLS3_0EEEOT_OT0_, symObjAddr: 0x441C, symBinAddr: 0x10000B280, symSize: 0x38 }
  - { offsetInCU: 0xF6A7, offset: 0x1F3BE, size: 0x8, addend: 0x0, symName: __ZNSt3__112__hash_tableIcNS_4hashIcEENS_8equal_toIcEENS_9allocatorIcEEED2Ev, symObjAddr: 0x4454, symBinAddr: 0x10000B2B8, symSize: 0x58 }
  - { offsetInCU: 0xF6D1, offset: 0x1F3E8, size: 0x8, addend: 0x0, symName: __ZNSt3__112__hash_tableIcNS_4hashIcEENS_8equal_toIcEENS_9allocatorIcEEE17__deallocate_nodeEPNS_16__hash_node_baseIPNS_11__hash_nodeIcPvEEEE, symObjAddr: 0x44AC, symBinAddr: 0x10000B310, symSize: 0x98 }
  - { offsetInCU: 0xF741, offset: 0x1F458, size: 0x8, addend: 0x0, symName: __ZNSt3__110unique_ptrIA_PNS_16__hash_node_baseIPNS_11__hash_nodeIcPvEEEENS_25__bucket_list_deallocatorINS_9allocatorIS7_EEEEED1B7v160006Ev, symObjAddr: 0x4554, symBinAddr: 0x10000B3B8, symSize: 0x2C }
  - { offsetInCU: 0xF769, offset: 0x1F480, size: 0x8, addend: 0x0, symName: __ZNSt3__110unique_ptrIA_PNS_16__hash_node_baseIPNS_11__hash_nodeIcPvEEEENS_25__bucket_list_deallocatorINS_9allocatorIS7_EEEEED2B7v160006Ev, symObjAddr: 0x4580, symBinAddr: 0x10000B3E4, symSize: 0x30 }
  - { offsetInCU: 0xF791, offset: 0x1F4A8, size: 0x8, addend: 0x0, symName: __ZNSt3__110unique_ptrIA_PNS_16__hash_node_baseIPNS_11__hash_nodeIcPvEEEENS_25__bucket_list_deallocatorINS_9allocatorIS7_EEEEE5resetB7v160006EDn, symObjAddr: 0x45B0, symBinAddr: 0x10000B414, symSize: 0x6C }
  - { offsetInCU: 0xF7D0, offset: 0x1F4E7, size: 0x8, addend: 0x0, symName: __ZNSt3__113unordered_setIcNS_4hashIcEENS_8equal_toIcEENS_9allocatorIcEEED2B7v160006Ev, symObjAddr: 0x461C, symBinAddr: 0x10000B480, symSize: 0x2C }
  - { offsetInCU: 0xF7F8, offset: 0x1F50F, size: 0x8, addend: 0x0, symName: __ZNSt3__112basic_stringIcNS_11char_traitsIcEENS_9allocatorIcEEE15__make_iteratorB7v160006EPc, symObjAddr: 0x4648, symBinAddr: 0x10000B4AC, symSize: 0x34 }
  - { offsetInCU: 0xF82B, offset: 0x1F542, size: 0x8, addend: 0x0, symName: __ZNSt3__112basic_stringIcNS_11char_traitsIcEENS_9allocatorIcEEE13__get_pointerB7v160006Ev, symObjAddr: 0x467C, symBinAddr: 0x10000B4E0, symSize: 0x54 }
  - { offsetInCU: 0xF84F, offset: 0x1F566, size: 0x8, addend: 0x0, symName: __ZNSt3__111__wrap_iterIPcEC1B7v160006EPKvS1_, symObjAddr: 0x46D0, symBinAddr: 0x10000B534, symSize: 0x3C }
  - { offsetInCU: 0xF893, offset: 0x1F5AA, size: 0x8, addend: 0x0, symName: __ZNSt3__111__wrap_iterIPcEC2B7v160006EPKvS1_, symObjAddr: 0x470C, symBinAddr: 0x10000B570, symSize: 0x24 }
  - { offsetInCU: 0xF8D7, offset: 0x1F5EE, size: 0x8, addend: 0x0, symName: __ZNSt3__112basic_stringIcNS_11char_traitsIcEENS_9allocatorIcEEE18__get_long_pointerB7v160006Ev, symObjAddr: 0x4768, symBinAddr: 0x10000B594, symSize: 0x28 }
  - { offsetInCU: 0xF8FB, offset: 0x1F612, size: 0x8, addend: 0x0, symName: __ZNSt3__112basic_stringIcNS_11char_traitsIcEENS_9allocatorIcEEE19__get_short_pointerB7v160006Ev, symObjAddr: 0x4790, symBinAddr: 0x10000B5BC, symSize: 0x28 }
  - { offsetInCU: 0xF91F, offset: 0x1F636, size: 0x8, addend: 0x0, symName: __ZNSt3__114pointer_traitsIPcE10pointer_toB7v160006ERc, symObjAddr: 0x47F0, symBinAddr: 0x10000B5E4, symSize: 0x14 }
  - { offsetInCU: 0xF942, offset: 0x1F659, size: 0x8, addend: 0x0, symName: __ZNSt3__111__wrap_iterIPcEppB7v160006Ev, symObjAddr: 0x496C, symBinAddr: 0x10000B6B0, symSize: 0x20 }
  - { offsetInCU: 0xF971, offset: 0x1F688, size: 0x8, addend: 0x0, symName: '__ZZN11TokenStreamC1ERNSt3__112basic_stringIcNS0_11char_traitsIcEENS0_9allocatorIcEEEEENK3$_0clEc', symObjAddr: 0x498C, symBinAddr: 0x10000B6D0, symSize: 0x40 }
  - { offsetInCU: 0xF9A7, offset: 0x1F6BE, size: 0x8, addend: 0x0, symName: __ZNKSt3__111__wrap_iterIPcEdeB7v160006Ev, symObjAddr: 0x49CC, symBinAddr: 0x10000B710, symSize: 0x18 }
  - { offsetInCU: 0xF9CC, offset: 0x1F6E3, size: 0x8, addend: 0x0, symName: __ZNKSt3__113unordered_setIcNS_4hashIcEENS_8equal_toIcEENS_9allocatorIcEEE5countB7v160006ERKc, symObjAddr: 0x4A2C, symBinAddr: 0x10000B770, symSize: 0x2C }
  - { offsetInCU: 0xF9FF, offset: 0x1F716, size: 0x8, addend: 0x0, symName: __ZNKSt3__112__hash_tableIcNS_4hashIcEENS_8equal_toIcEENS_9allocatorIcEEE14__count_uniqueIcEEmRKT_, symObjAddr: 0x4A58, symBinAddr: 0x10000B79C, symSize: 0x64 }
  - { offsetInCU: 0xFA3D, offset: 0x1F754, size: 0x8, addend: 0x0, symName: __ZNKSt3__112__hash_tableIcNS_4hashIcEENS_8equal_toIcEENS_9allocatorIcEEE4findIcEENS_21__hash_const_iteratorIPNS_11__hash_nodeIcPvEEEERKT_, symObjAddr: 0x4AF0, symBinAddr: 0x10000B834, symSize: 0x1C0 }
  - { offsetInCU: 0xFAC5, offset: 0x1F7DC, size: 0x8, addend: 0x0, symName: __ZNKSt3__112__hash_tableIcNS_4hashIcEENS_8equal_toIcEENS_9allocatorIcEEE3endEv, symObjAddr: 0x4CB0, symBinAddr: 0x10000B9F4, symSize: 0x30 }
  - { offsetInCU: 0xFAEB, offset: 0x1F802, size: 0x8, addend: 0x0, symName: __ZNKSt3__112__hash_tableIcNS_4hashIcEENS_8equal_toIcEENS_9allocatorIcEEE13hash_functionB7v160006Ev, symObjAddr: 0x4D10, symBinAddr: 0x10000BA54, symSize: 0x28 }
  - { offsetInCU: 0xFB0F, offset: 0x1F826, size: 0x8, addend: 0x0, symName: __ZNKSt3__112__hash_tableIcNS_4hashIcEENS_8equal_toIcEENS_9allocatorIcEEE6key_eqB7v160006Ev, symObjAddr: 0x4D38, symBinAddr: 0x10000BA7C, symSize: 0x28 }
  - { offsetInCU: 0xFB33, offset: 0x1F84A, size: 0x8, addend: 0x0, symName: __ZNSt3__121__hash_const_iteratorIPNS_11__hash_nodeIcPvEEEC1B7v160006EPNS_16__hash_node_baseIS4_EEPKv, symObjAddr: 0x4D60, symBinAddr: 0x10000BAA4, symSize: 0x3C }
  - { offsetInCU: 0xFB79, offset: 0x1F890, size: 0x8, addend: 0x0, symName: __ZNKSt3__117__compressed_pairImNS_4hashIcEEE6secondB7v160006Ev, symObjAddr: 0x4D9C, symBinAddr: 0x10000BAE0, symSize: 0x24 }
  - { offsetInCU: 0xFB9D, offset: 0x1F8B4, size: 0x8, addend: 0x0, symName: __ZNKSt3__122__compressed_pair_elemINS_4hashIcEELi1ELb1EE5__getB7v160006Ev, symObjAddr: 0x4DC0, symBinAddr: 0x10000BB04, symSize: 0x14 }
  - { offsetInCU: 0xFBC2, offset: 0x1F8D9, size: 0x8, addend: 0x0, symName: __ZNKSt3__117__compressed_pairIfNS_8equal_toIcEEE6secondB7v160006Ev, symObjAddr: 0x4DD4, symBinAddr: 0x10000BB18, symSize: 0x24 }
  - { offsetInCU: 0xFBE6, offset: 0x1F8FD, size: 0x8, addend: 0x0, symName: __ZNKSt3__122__compressed_pair_elemINS_8equal_toIcEELi1ELb1EE5__getB7v160006Ev, symObjAddr: 0x4DF8, symBinAddr: 0x10000BB3C, symSize: 0x14 }
  - { offsetInCU: 0xFC0B, offset: 0x1F922, size: 0x8, addend: 0x0, symName: __ZNSt3__121__hash_const_iteratorIPNS_11__hash_nodeIcPvEEEC2B7v160006EPNS_16__hash_node_baseIS4_EEPKv, symObjAddr: 0x4E0C, symBinAddr: 0x10000BB50, symSize: 0x24 }
  - { offsetInCU: 0xFC51, offset: 0x1F968, size: 0x8, addend: 0x0, symName: __ZNKSt3__111__wrap_iterIPcEplB7v160006El, symObjAddr: 0x4EB0, symBinAddr: 0x10000BBF4, symSize: 0x3C }
  - { offsetInCU: 0xFC91, offset: 0x1F9A8, size: 0x8, addend: 0x0, symName: __ZNKSt3__111__wrap_iterIPKcE4baseB7v160006Ev, symObjAddr: 0x4EEC, symBinAddr: 0x10000BC30, symSize: 0x18 }
  - { offsetInCU: 0xFCB6, offset: 0x1F9CD, size: 0x8, addend: 0x0, symName: __ZNSt3__111__wrap_iterIPcEpLB7v160006El, symObjAddr: 0x4F04, symBinAddr: 0x10000BC48, symSize: 0x28 }
  - { offsetInCU: 0xFD11, offset: 0x1FA28, size: 0x8, addend: 0x0, symName: __ZNSt3__111char_traitsIcE6assignERcRKc, symObjAddr: 0x6598, symBinAddr: 0x10000BC80, symSize: 0x24 }
  - { offsetInCU: 0xFD42, offset: 0x1FA59, size: 0x8, addend: 0x0, symName: __ZNSt3__112basic_stringIcNS_11char_traitsIcEENS_9allocatorIcEEE15__set_long_sizeB7v160006Em, symObjAddr: 0x65BC, symBinAddr: 0x10000BCA4, symSize: 0x38 }
  - { offsetInCU: 0xFD75, offset: 0x1FA8C, size: 0x8, addend: 0x0, symName: __ZNSt3__112basic_stringIcNS_11char_traitsIcEENS_9allocatorIcEEE16__set_short_sizeB7v160006Em, symObjAddr: 0x65F4, symBinAddr: 0x10000BCDC, symSize: 0x78 }
  - { offsetInCU: 0xFDA8, offset: 0x1FABF, size: 0x8, addend: 0x0, symName: __ZNSt3__112basic_stringIcNS_11char_traitsIcEENS_9allocatorIcEEEC2B7v160006Emc, symObjAddr: 0x666C, symBinAddr: 0x10000BD54, symSize: 0x54 }
  - { offsetInCU: 0xFDEE, offset: 0x1FB05, size: 0x8, addend: 0x0, symName: __ZNSt3__16vectorINS_12basic_stringIcNS_11char_traitsIcEENS_9allocatorIcEEEENS4_IS6_EEE22__construct_one_at_endB7v160006IJS6_EEEvDpOT_, symObjAddr: 0x66C0, symBinAddr: 0x10000BDA8, symSize: 0x90 }
  - { offsetInCU: 0xFE3B, offset: 0x1FB52, size: 0x8, addend: 0x0, symName: __ZNSt3__16vectorINS_12basic_stringIcNS_11char_traitsIcEENS_9allocatorIcEEEENS4_IS6_EEE21__push_back_slow_pathIS6_EEvOT_, symObjAddr: 0x6750, symBinAddr: 0x10000BE38, symSize: 0xD8 }
  - { offsetInCU: 0xFE9C, offset: 0x1FBB3, size: 0x8, addend: 0x0, symName: __ZNSt3__16vectorINS_12basic_stringIcNS_11char_traitsIcEENS_9allocatorIcEEEENS4_IS6_EEE11__make_iterB7v160006EPS6_, symObjAddr: 0x99EC, symBinAddr: 0x10000BF10, symSize: 0x34 }
  - { offsetInCU: 0xFECF, offset: 0x1FBE6, size: 0x8, addend: 0x0, symName: __ZNSt3__111__wrap_iterIPNS_12basic_stringIcNS_11char_traitsIcEENS_9allocatorIcEEEEEC1B7v160006EPKvS7_, symObjAddr: 0x9A20, symBinAddr: 0x10000BF44, symSize: 0x3C }
  - { offsetInCU: 0xFF13, offset: 0x1FC2A, size: 0x8, addend: 0x0, symName: __ZNSt3__111__wrap_iterIPNS_12basic_stringIcNS_11char_traitsIcEENS_9allocatorIcEEEEEC2B7v160006EPKvS7_, symObjAddr: 0x9A5C, symBinAddr: 0x10000BF80, symSize: 0x24 }
  - { offsetInCU: 0xFF75, offset: 0x1FC8C, size: 0x8, addend: 0x0, symName: __ZNKSt3__113basic_ostreamIcNS_11char_traitsIcEEE6sentrycvbB7v160006Ev, symObjAddr: 0x9F78, symBinAddr: 0x10000C190, symSize: 0x1C }
  - { offsetInCU: 0xFF9A, offset: 0x1FCB1, size: 0x8, addend: 0x0, symName: __ZNSt3__119ostreambuf_iteratorIcNS_11char_traitsIcEEEC1B7v160006ERNS_13basic_ostreamIcS2_EE, symObjAddr: 0xA1D4, symBinAddr: 0x10000C3EC, symSize: 0x34 }
  - { offsetInCU: 0xFFD0, offset: 0x1FCE7, size: 0x8, addend: 0x0, symName: __ZNKSt3__18ios_base5flagsB7v160006Ev, symObjAddr: 0xA208, symBinAddr: 0x10000C420, symSize: 0x18 }
  - { offsetInCU: 0xFFF7, offset: 0x1FD0E, size: 0x8, addend: 0x0, symName: __ZNKSt3__19basic_iosIcNS_11char_traitsIcEEE4fillB7v160006Ev, symObjAddr: 0xA220, symBinAddr: 0x10000C438, symSize: 0x64 }
  - { offsetInCU: 0x1001D, offset: 0x1FD34, size: 0x8, addend: 0x0, symName: __ZNKSt3__119ostreambuf_iteratorIcNS_11char_traitsIcEEE6failedB7v160006Ev, symObjAddr: 0xA284, symBinAddr: 0x10000C49C, symSize: 0x24 }
  - { offsetInCU: 0x10042, offset: 0x1FD59, size: 0x8, addend: 0x0, symName: __ZNSt3__19basic_iosIcNS_11char_traitsIcEEE8setstateB7v160006Ej, symObjAddr: 0xA2A8, symBinAddr: 0x10000C4C0, symSize: 0x2C }
  - { offsetInCU: 0x10075, offset: 0x1FD8C, size: 0x8, addend: 0x0, symName: __ZNKSt3__18ios_base5widthB7v160006Ev, symObjAddr: 0xA2D4, symBinAddr: 0x10000C4EC, symSize: 0x18 }
  - { offsetInCU: 0x1009C, offset: 0x1FDB3, size: 0x8, addend: 0x0, symName: __ZNSt3__115basic_streambufIcNS_11char_traitsIcEEE5sputnB7v160006EPKcl, symObjAddr: 0xA2EC, symBinAddr: 0x10000C504, symSize: 0x3C }
  - { offsetInCU: 0x100DC, offset: 0x1FDF3, size: 0x8, addend: 0x0, symName: __ZNSt3__112basic_stringIcNS_11char_traitsIcEENS_9allocatorIcEEE4dataB7v160006Ev, symObjAddr: 0xA328, symBinAddr: 0x10000C540, symSize: 0x28 }
  - { offsetInCU: 0x10100, offset: 0x1FE17, size: 0x8, addend: 0x0, symName: __ZNSt3__18ios_base5widthB7v160006El, symObjAddr: 0xA350, symBinAddr: 0x10000C568, symSize: 0x2C }
  - { offsetInCU: 0x10145, offset: 0x1FE5C, size: 0x8, addend: 0x0, symName: __ZNSt3__119ostreambuf_iteratorIcNS_11char_traitsIcEEEC2B7v160006ERNS_13basic_ostreamIcS2_EE, symObjAddr: 0xA390, symBinAddr: 0x10000C5A8, symSize: 0x54 }
  - { offsetInCU: 0x1017B, offset: 0x1FE92, size: 0x8, addend: 0x0, symName: __ZNKSt3__19basic_iosIcNS_11char_traitsIcEEE5rdbufB7v160006Ev, symObjAddr: 0xA3E4, symBinAddr: 0x10000C5FC, symSize: 0x24 }
  - { offsetInCU: 0x101A1, offset: 0x1FEB8, size: 0x8, addend: 0x0, symName: __ZNKSt3__18ios_base5rdbufB7v160006Ev, symObjAddr: 0xA408, symBinAddr: 0x10000C620, symSize: 0x18 }
  - { offsetInCU: 0x101C6, offset: 0x1FEDD, size: 0x8, addend: 0x0, symName: __ZNSt3__111char_traitsIcE11eq_int_typeEii, symObjAddr: 0xA420, symBinAddr: 0x10000C638, symSize: 0x28 }
  - { offsetInCU: 0x101F7, offset: 0x1FF0E, size: 0x8, addend: 0x0, symName: __ZNSt3__111char_traitsIcE3eofEv, symObjAddr: 0xA448, symBinAddr: 0x10000C660, symSize: 0x8 }
  - { offsetInCU: 0x1020B, offset: 0x1FF22, size: 0x8, addend: 0x0, symName: __ZNKSt3__19basic_iosIcNS_11char_traitsIcEEE5widenB7v160006Ec, symObjAddr: 0xA450, symBinAddr: 0x10000C668, symSize: 0x84 }
  - { offsetInCU: 0x10277, offset: 0x1FF8E, size: 0x8, addend: 0x0, symName: __ZNKSt3__15ctypeIcE5widenB7v160006Ec, symObjAddr: 0xA500, symBinAddr: 0x10000C718, symSize: 0x38 }
  - { offsetInCU: 0x102AA, offset: 0x1FFC1, size: 0x8, addend: 0x0, symName: __ZNSt3__18ios_base8setstateB7v160006Ej, symObjAddr: 0xA538, symBinAddr: 0x10000C750, symSize: 0x34 }
  - { offsetInCU: 0x3E47, offset: 0x23F83, size: 0x8, addend: 0x0, symName: __ZNSt3__1neB7v160006IPKNS_12basic_stringIcNS_11char_traitsIcEENS_9allocatorIcEEEEEEbRKNS_11__wrap_iterIT_EESD_, symObjAddr: 0x390, symBinAddr: 0x10000CAA0, symSize: 0x34 }
  - { offsetInCU: 0x3E8A, offset: 0x23FC6, size: 0x8, addend: 0x0, symName: __ZNSt3__1eqB7v160006IPKNS_12basic_stringIcNS_11char_traitsIcEENS_9allocatorIcEEEEEEbRKNS_11__wrap_iterIT_EESD_, symObjAddr: 0x10E0, symBinAddr: 0x10000D6F4, symSize: 0x48 }
  - { offsetInCU: 0x3ECD, offset: 0x24009, size: 0x8, addend: 0x0, symName: __ZNSt3__122__make_exception_guardB7v160006INS_6vectorINS_12basic_stringIcNS_11char_traitsIcEENS_9allocatorIcEEEENS5_IS7_EEE16__destroy_vectorEEENS_28__exception_guard_exceptionsIT_EESC_, symObjAddr: 0x12C8, symBinAddr: 0x10000D8B4, symSize: 0x40 }
  - { offsetInCU: 0x3F02, offset: 0x2403E, size: 0x8, addend: 0x0, symName: __ZNSt3__130__uninitialized_allocator_copyB7v160006INS_9allocatorINS_12basic_stringIcNS_11char_traitsIcEENS1_IcEEEEEEPS6_S8_S8_EET2_RT_T0_T1_S9_, symObjAddr: 0x1CFC, symBinAddr: 0x10000DB30, symSize: 0xF4 }
  - { offsetInCU: 0x3FA0, offset: 0x240DC, size: 0x8, addend: 0x0, symName: __ZNSt3__122__make_exception_guardB7v160006INS_29_AllocatorDestroyRangeReverseINS_9allocatorINS_12basic_stringIcNS_11char_traitsIcEENS2_IcEEEEEEPS7_EEEENS_28__exception_guard_exceptionsIT_EESC_, symObjAddr: 0x1E68, symBinAddr: 0x10000DC24, symSize: 0x4C }
  - { offsetInCU: 0x3FD6, offset: 0x24112, size: 0x8, addend: 0x0, symName: __ZNSt3__119__allocator_destroyB7v160006INS_9allocatorINS_12basic_stringIcNS_11char_traitsIcEENS1_IcEEEEEENS_16reverse_iteratorIPS6_EESA_EEvRT_T0_T1_, symObjAddr: 0x20F8, symBinAddr: 0x10000DEB4, symSize: 0x70 }
  - { offsetInCU: 0x60A4, offset: 0x261E0, size: 0x8, addend: 0x0, symName: __ZN10ConstraintD2Ev, symObjAddr: 0x0, symBinAddr: 0x10000C784, symSize: 0x14 }
  - { offsetInCU: 0x60CF, offset: 0x2620B, size: 0x8, addend: 0x0, symName: __ZN10ConstraintD1Ev, symObjAddr: 0x14, symBinAddr: 0x10000C798, symSize: 0x14 }
  - { offsetInCU: 0x60FA, offset: 0x26236, size: 0x8, addend: 0x0, symName: __ZN10ConstraintD0Ev, symObjAddr: 0x28, symBinAddr: 0x10000C7AC, symSize: 0xC }
  - { offsetInCU: 0x619C, offset: 0x262D8, size: 0x8, addend: 0x0, symName: __ZN18SequenceConstraintC2ERKNSt3__16vectorINS0_12basic_stringIcNS0_11char_traitsIcEENS0_9allocatorIcEEEENS5_IS7_EEEE, symObjAddr: 0x34, symBinAddr: 0x10000C7B8, symSize: 0x80 }
  - { offsetInCU: 0x61D4, offset: 0x26310, size: 0x8, addend: 0x0, symName: __ZN10ConstraintC2Ev, symObjAddr: 0xB4, symBinAddr: 0x10000C838, symSize: 0x24 }
  - { offsetInCU: 0x61FF, offset: 0x2633B, size: 0x8, addend: 0x0, symName: __ZNSt3__16vectorINS_12basic_stringIcNS_11char_traitsIcEENS_9allocatorIcEEEENS4_IS6_EEEC1ERKS8_, symObjAddr: 0xD8, symBinAddr: 0x10000C85C, symSize: 0x34 }
  - { offsetInCU: 0x6238, offset: 0x26374, size: 0x8, addend: 0x0, symName: __ZN18SequenceConstraintC1ERKNSt3__16vectorINS0_12basic_stringIcNS0_11char_traitsIcEENS0_9allocatorIcEEEENS5_IS7_EEEE, symObjAddr: 0x10C, symBinAddr: 0x10000C890, symSize: 0x34 }
  - { offsetInCU: 0x6270, offset: 0x263AC, size: 0x8, addend: 0x0, symName: __ZN18SequenceConstraintD2Ev, symObjAddr: 0x140, symBinAddr: 0x10000C8C4, symSize: 0x48 }
  - { offsetInCU: 0x629A, offset: 0x263D6, size: 0x8, addend: 0x0, symName: __ZN18SequenceConstraintD1Ev, symObjAddr: 0x1B4, symBinAddr: 0x10000C90C, symSize: 0x2C }
  - { offsetInCU: 0x62C4, offset: 0x26400, size: 0x8, addend: 0x0, symName: __ZN18SequenceConstraintD0Ev, symObjAddr: 0x1E0, symBinAddr: 0x10000C938, symSize: 0x30 }
  - { offsetInCU: 0x62EE, offset: 0x2642A, size: 0x8, addend: 0x0, symName: __ZNK18SequenceConstraint4EvalEv, symObjAddr: 0x210, symBinAddr: 0x10000C968, symSize: 0xD8 }
  - { offsetInCU: 0x6365, offset: 0x264A1, size: 0x8, addend: 0x0, symName: __ZNKSt3__16vectorINS_12basic_stringIcNS_11char_traitsIcEENS_9allocatorIcEEEENS4_IS6_EEE5beginB7v160006Ev, symObjAddr: 0x330, symBinAddr: 0x10000CA40, symSize: 0x30 }
  - { offsetInCU: 0x638B, offset: 0x264C7, size: 0x8, addend: 0x0, symName: __ZNKSt3__16vectorINS_12basic_stringIcNS_11char_traitsIcEENS_9allocatorIcEEEENS4_IS6_EEE3endB7v160006Ev, symObjAddr: 0x360, symBinAddr: 0x10000CA70, symSize: 0x30 }
  - { offsetInCU: 0x63B1, offset: 0x264ED, size: 0x8, addend: 0x0, symName: __ZNKSt3__111__wrap_iterIPKNS_12basic_stringIcNS_11char_traitsIcEENS_9allocatorIcEEEEEdeB7v160006Ev, symObjAddr: 0x3C4, symBinAddr: 0x10000CAD4, symSize: 0x18 }
  - { offsetInCU: 0x63D6, offset: 0x26512, size: 0x8, addend: 0x0, symName: __ZNSt3__111__wrap_iterIPKNS_12basic_stringIcNS_11char_traitsIcEENS_9allocatorIcEEEEEppB7v160006Ev, symObjAddr: 0x428, symBinAddr: 0x10000CAEC, symSize: 0x20 }
  - { offsetInCU: 0x6488, offset: 0x265C4, size: 0x8, addend: 0x0, symName: __ZN13AndConstraintC2EP10ConstraintS1_, symObjAddr: 0x4F8, symBinAddr: 0x10000CB0C, symSize: 0x5C }
  - { offsetInCU: 0x64CE, offset: 0x2660A, size: 0x8, addend: 0x0, symName: __ZN13AndConstraintC1EP10ConstraintS1_, symObjAddr: 0x554, symBinAddr: 0x10000CB68, symSize: 0x3C }
  - { offsetInCU: 0x6514, offset: 0x26650, size: 0x8, addend: 0x0, symName: __ZN13AndConstraintD2Ev, symObjAddr: 0x590, symBinAddr: 0x10000CBA4, symSize: 0xA4 }
  - { offsetInCU: 0x653E, offset: 0x2667A, size: 0x8, addend: 0x0, symName: __ZN13AndConstraintD1Ev, symObjAddr: 0x634, symBinAddr: 0x10000CC48, symSize: 0x2C }
  - { offsetInCU: 0x6568, offset: 0x266A4, size: 0x8, addend: 0x0, symName: __ZN13AndConstraintD0Ev, symObjAddr: 0x660, symBinAddr: 0x10000CC74, symSize: 0x30 }
  - { offsetInCU: 0x6592, offset: 0x266CE, size: 0x8, addend: 0x0, symName: __ZNK13AndConstraint4EvalEv, symObjAddr: 0x690, symBinAddr: 0x10000CCA4, symSize: 0x9C }
  - { offsetInCU: 0x6640, offset: 0x2677C, size: 0x8, addend: 0x0, symName: __ZN12OrConstraintC2EP10ConstraintS1_, symObjAddr: 0x72C, symBinAddr: 0x10000CD40, symSize: 0x5C }
  - { offsetInCU: 0x6686, offset: 0x267C2, size: 0x8, addend: 0x0, symName: __ZN12OrConstraintC1EP10ConstraintS1_, symObjAddr: 0x788, symBinAddr: 0x10000CD9C, symSize: 0x3C }
  - { offsetInCU: 0x66CC, offset: 0x26808, size: 0x8, addend: 0x0, symName: __ZN12OrConstraintD2Ev, symObjAddr: 0x7C4, symBinAddr: 0x10000CDD8, symSize: 0xA4 }
  - { offsetInCU: 0x66F6, offset: 0x26832, size: 0x8, addend: 0x0, symName: __ZN12OrConstraintD1Ev, symObjAddr: 0x868, symBinAddr: 0x10000CE7C, symSize: 0x2C }
  - { offsetInCU: 0x6720, offset: 0x2685C, size: 0x8, addend: 0x0, symName: __ZN12OrConstraintD0Ev, symObjAddr: 0x894, symBinAddr: 0x10000CEA8, symSize: 0x30 }
  - { offsetInCU: 0x674A, offset: 0x26886, size: 0x8, addend: 0x0, symName: __ZNK12OrConstraint4EvalEv, symObjAddr: 0x8C4, symBinAddr: 0x10000CED8, symSize: 0x9C }
  - { offsetInCU: 0x67E7, offset: 0x26923, size: 0x8, addend: 0x0, symName: __ZN13NotConstraintC2EP10Constraint, symObjAddr: 0x960, symBinAddr: 0x10000CF74, symSize: 0x50 }
  - { offsetInCU: 0x681F, offset: 0x2695B, size: 0x8, addend: 0x0, symName: __ZN13NotConstraintC1EP10Constraint, symObjAddr: 0x9B0, symBinAddr: 0x10000CFC4, symSize: 0x34 }
  - { offsetInCU: 0x6857, offset: 0x26993, size: 0x8, addend: 0x0, symName: __ZN13NotConstraintD2Ev, symObjAddr: 0x9E4, symBinAddr: 0x10000CFF8, symSize: 0x74 }
  - { offsetInCU: 0x6881, offset: 0x269BD, size: 0x8, addend: 0x0, symName: __ZN13NotConstraintD1Ev, symObjAddr: 0xA58, symBinAddr: 0x10000D06C, symSize: 0x2C }
  - { offsetInCU: 0x68AB, offset: 0x269E7, size: 0x8, addend: 0x0, symName: __ZN13NotConstraintD0Ev, symObjAddr: 0xA84, symBinAddr: 0x10000D098, symSize: 0x30 }
  - { offsetInCU: 0x68D5, offset: 0x26A11, size: 0x8, addend: 0x0, symName: __ZNK13NotConstraint4EvalEv, symObjAddr: 0xAB4, symBinAddr: 0x10000D0C8, symSize: 0x78 }
  - { offsetInCU: 0x6972, offset: 0x26AAE, size: 0x8, addend: 0x0, symName: __ZN18RequiredConstraintC2EP10Constraint, symObjAddr: 0xB2C, symBinAddr: 0x10000D140, symSize: 0x50 }
  - { offsetInCU: 0x69AA, offset: 0x26AE6, size: 0x8, addend: 0x0, symName: __ZN18RequiredConstraintC1EP10Constraint, symObjAddr: 0xB7C, symBinAddr: 0x10000D190, symSize: 0x34 }
  - { offsetInCU: 0x69E2, offset: 0x26B1E, size: 0x8, addend: 0x0, symName: __ZN18RequiredConstraintD2Ev, symObjAddr: 0xBB0, symBinAddr: 0x10000D1C4, symSize: 0x74 }
  - { offsetInCU: 0x6A0C, offset: 0x26B48, size: 0x8, addend: 0x0, symName: __ZN18RequiredConstraintD1Ev, symObjAddr: 0xC24, symBinAddr: 0x10000D238, symSize: 0x2C }
  - { offsetInCU: 0x6A36, offset: 0x26B72, size: 0x8, addend: 0x0, symName: __ZN18RequiredConstraintD0Ev, symObjAddr: 0xC50, symBinAddr: 0x10000D264, symSize: 0x30 }
  - { offsetInCU: 0x6A60, offset: 0x26B9C, size: 0x8, addend: 0x0, symName: __ZNK18RequiredConstraint4EvalEv, symObjAddr: 0xC80, symBinAddr: 0x10000D294, symSize: 0x78 }
  - { offsetInCU: 0x6AFD, offset: 0x26C39, size: 0x8, addend: 0x0, symName: __ZN16PhraseConstraintC2ERKNSt3__16vectorINS0_12basic_stringIcNS0_11char_traitsIcEENS0_9allocatorIcEEEENS5_IS7_EEEE, symObjAddr: 0xCF8, symBinAddr: 0x10000D30C, symSize: 0x80 }
  - { offsetInCU: 0x6B35, offset: 0x26C71, size: 0x8, addend: 0x0, symName: __ZN16PhraseConstraintC1ERKNSt3__16vectorINS0_12basic_stringIcNS0_11char_traitsIcEENS0_9allocatorIcEEEENS5_IS7_EEEE, symObjAddr: 0xD78, symBinAddr: 0x10000D38C, symSize: 0x34 }
  - { offsetInCU: 0x6B6D, offset: 0x26CA9, size: 0x8, addend: 0x0, symName: __ZN16PhraseConstraintD2Ev, symObjAddr: 0xDAC, symBinAddr: 0x10000D3C0, symSize: 0x48 }
  - { offsetInCU: 0x6B97, offset: 0x26CD3, size: 0x8, addend: 0x0, symName: __ZN16PhraseConstraintD1Ev, symObjAddr: 0xDF4, symBinAddr: 0x10000D408, symSize: 0x2C }
  - { offsetInCU: 0x6BC1, offset: 0x26CFD, size: 0x8, addend: 0x0, symName: __ZN16PhraseConstraintD0Ev, symObjAddr: 0xE20, symBinAddr: 0x10000D434, symSize: 0x30 }
  - { offsetInCU: 0x6BEB, offset: 0x26D27, size: 0x8, addend: 0x0, symName: __ZNK16PhraseConstraint4EvalEv, symObjAddr: 0xE50, symBinAddr: 0x10000D464, symSize: 0xD8 }
  - { offsetInCU: 0x6CD9, offset: 0x26E15, size: 0x8, addend: 0x0, symName: __ZN20SearchWordConstraintC2ERKNSt3__112basic_stringIcNS0_11char_traitsIcEENS0_9allocatorIcEEEE, symObjAddr: 0xF28, symBinAddr: 0x10000D53C, symSize: 0x80 }
  - { offsetInCU: 0x6D11, offset: 0x26E4D, size: 0x8, addend: 0x0, symName: __ZN20SearchWordConstraintC1ERKNSt3__112basic_stringIcNS0_11char_traitsIcEENS0_9allocatorIcEEEE, symObjAddr: 0xFA8, symBinAddr: 0x10000D5BC, symSize: 0x34 }
  - { offsetInCU: 0x6D49, offset: 0x26E85, size: 0x8, addend: 0x0, symName: __ZN20SearchWordConstraintD2Ev, symObjAddr: 0xFDC, symBinAddr: 0x10000D5F0, symSize: 0x48 }
  - { offsetInCU: 0x6D73, offset: 0x26EAF, size: 0x8, addend: 0x0, symName: __ZN20SearchWordConstraintD1Ev, symObjAddr: 0x1024, symBinAddr: 0x10000D638, symSize: 0x2C }
  - { offsetInCU: 0x6D9D, offset: 0x26ED9, size: 0x8, addend: 0x0, symName: __ZN20SearchWordConstraintD0Ev, symObjAddr: 0x1050, symBinAddr: 0x10000D664, symSize: 0x30 }
  - { offsetInCU: 0x6DC7, offset: 0x26F03, size: 0x8, addend: 0x0, symName: __ZNK20SearchWordConstraint4EvalEv, symObjAddr: 0x1080, symBinAddr: 0x10000D694, symSize: 0x60 }
  - { offsetInCU: 0x6DED, offset: 0x26F29, size: 0x8, addend: 0x0, symName: __ZNKSt3__111__wrap_iterIPKNS_12basic_stringIcNS_11char_traitsIcEENS_9allocatorIcEEEEE4baseB7v160006Ev, symObjAddr: 0x1128, symBinAddr: 0x10000D73C, symSize: 0x18 }
  - { offsetInCU: 0x6E12, offset: 0x26F4E, size: 0x8, addend: 0x0, symName: __ZNSt3__16vectorINS_12basic_stringIcNS_11char_traitsIcEENS_9allocatorIcEEEENS4_IS6_EEEC2ERKS8_, symObjAddr: 0x1140, symBinAddr: 0x10000D754, symSize: 0x114 }
  - { offsetInCU: 0x6E79, offset: 0x26FB5, size: 0x8, addend: 0x0, symName: __ZNSt3__116allocator_traitsINS_9allocatorINS_12basic_stringIcNS_11char_traitsIcEENS1_IcEEEEEEE37select_on_container_copy_constructionB7v160006IS7_vvEES7_RKS7_, symObjAddr: 0x1254, symBinAddr: 0x10000D868, symSize: 0x10 }
  - { offsetInCU: 0x6EB2, offset: 0x26FEE, size: 0x8, addend: 0x0, symName: __ZNSt3__117__compressed_pairIPNS_12basic_stringIcNS_11char_traitsIcEENS_9allocatorIcEEEENS4_IS6_EEEC1B7v160006IDnS8_EEOT_OT0_, symObjAddr: 0x128C, symBinAddr: 0x10000D878, symSize: 0x3C }
  - { offsetInCU: 0x6F08, offset: 0x27044, size: 0x8, addend: 0x0, symName: __ZNSt3__16vectorINS_12basic_stringIcNS_11char_traitsIcEENS_9allocatorIcEEEENS4_IS6_EEE11__vallocateB7v160006Em, symObjAddr: 0x1374, symBinAddr: 0x10000D8F4, symSize: 0xB4 }
  - { offsetInCU: 0x6F4A, offset: 0x27086, size: 0x8, addend: 0x0, symName: __ZNSt3__16vectorINS_12basic_stringIcNS_11char_traitsIcEENS_9allocatorIcEEEENS4_IS6_EEE18__construct_at_endIPS6_Li0EEEvT_SB_m, symObjAddr: 0x1428, symBinAddr: 0x10000D9A8, symSize: 0x8C }
  - { offsetInCU: 0x6FBC, offset: 0x270F8, size: 0x8, addend: 0x0, symName: __ZNSt3__128__exception_guard_exceptionsINS_6vectorINS_12basic_stringIcNS_11char_traitsIcEENS_9allocatorIcEEEENS5_IS7_EEE16__destroy_vectorEE10__completeB7v160006Ev, symObjAddr: 0x14B4, symBinAddr: 0x10000DA34, symSize: 0x1C }
  - { offsetInCU: 0x6FE1, offset: 0x2711D, size: 0x8, addend: 0x0, symName: __ZNSt3__128__exception_guard_exceptionsINS_6vectorINS_12basic_stringIcNS_11char_traitsIcEENS_9allocatorIcEEEENS5_IS7_EEE16__destroy_vectorEED1B7v160006Ev, symObjAddr: 0x14D0, symBinAddr: 0x10000DA50, symSize: 0x2C }
  - { offsetInCU: 0x7009, offset: 0x27145, size: 0x8, addend: 0x0, symName: __ZNSt3__117__compressed_pairIPNS_12basic_stringIcNS_11char_traitsIcEENS_9allocatorIcEEEENS4_IS6_EEEC2B7v160006IDnS8_EEOT_OT0_, symObjAddr: 0x1534, symBinAddr: 0x10000DA7C, symSize: 0x44 }
  - { offsetInCU: 0x705F, offset: 0x2719B, size: 0x8, addend: 0x0, symName: __ZNSt3__122__compressed_pair_elemINS_9allocatorINS_12basic_stringIcNS_11char_traitsIcEENS1_IcEEEEEELi1ELb1EEC2B7v160006IS7_vEEOT_, symObjAddr: 0x1594, symBinAddr: 0x10000DAC0, symSize: 0x18 }
  - { offsetInCU: 0x709F, offset: 0x271DB, size: 0x8, addend: 0x0, symName: __ZNSt3__128__exception_guard_exceptionsINS_6vectorINS_12basic_stringIcNS_11char_traitsIcEENS_9allocatorIcEEEENS5_IS7_EEE16__destroy_vectorEEC1B7v160006ESA_, symObjAddr: 0x15AC, symBinAddr: 0x10000DAD8, symSize: 0x34 }
  - { offsetInCU: 0x70D5, offset: 0x27211, size: 0x8, addend: 0x0, symName: __ZNSt3__128__exception_guard_exceptionsINS_6vectorINS_12basic_stringIcNS_11char_traitsIcEENS_9allocatorIcEEEENS5_IS7_EEE16__destroy_vectorEEC2B7v160006ESA_, symObjAddr: 0x15E0, symBinAddr: 0x10000DB0C, symSize: 0x24 }
  - { offsetInCU: 0x7124, offset: 0x27260, size: 0x8, addend: 0x0, symName: __ZNSt3__129_AllocatorDestroyRangeReverseINS_9allocatorINS_12basic_stringIcNS_11char_traitsIcEENS1_IcEEEEEEPS6_EC1B7v160006ERS7_RS8_SB_, symObjAddr: 0x1EB4, symBinAddr: 0x10000DC70, symSize: 0x44 }
  - { offsetInCU: 0x7179, offset: 0x272B5, size: 0x8, addend: 0x0, symName: __ZNSt3__116allocator_traitsINS_9allocatorINS_12basic_stringIcNS_11char_traitsIcEENS1_IcEEEEEEE9constructB7v160006IS6_JRS6_EvEEvRS7_PT_DpOT0_, symObjAddr: 0x1EF8, symBinAddr: 0x10000DCB4, symSize: 0x34 }
  - { offsetInCU: 0x71D0, offset: 0x2730C, size: 0x8, addend: 0x0, symName: __ZNSt3__128__exception_guard_exceptionsINS_29_AllocatorDestroyRangeReverseINS_9allocatorINS_12basic_stringIcNS_11char_traitsIcEENS2_IcEEEEEEPS7_EEE10__completeB7v160006Ev, symObjAddr: 0x1F2C, symBinAddr: 0x10000DCE8, symSize: 0x1C }
  - { offsetInCU: 0x71F5, offset: 0x27331, size: 0x8, addend: 0x0, symName: __ZNSt3__128__exception_guard_exceptionsINS_29_AllocatorDestroyRangeReverseINS_9allocatorINS_12basic_stringIcNS_11char_traitsIcEENS2_IcEEEEEEPS7_EEED1B7v160006Ev, symObjAddr: 0x1F48, symBinAddr: 0x10000DD04, symSize: 0x2C }
  - { offsetInCU: 0x721D, offset: 0x27359, size: 0x8, addend: 0x0, symName: __ZNSt3__128__exception_guard_exceptionsINS_29_AllocatorDestroyRangeReverseINS_9allocatorINS_12basic_stringIcNS_11char_traitsIcEENS2_IcEEEEEEPS7_EEEC1B7v160006ESA_, symObjAddr: 0x1F74, symBinAddr: 0x10000DD30, symSize: 0x34 }
  - { offsetInCU: 0x7254, offset: 0x27390, size: 0x8, addend: 0x0, symName: __ZNSt3__128__exception_guard_exceptionsINS_29_AllocatorDestroyRangeReverseINS_9allocatorINS_12basic_stringIcNS_11char_traitsIcEENS2_IcEEEEEEPS7_EEEC2B7v160006ESA_, symObjAddr: 0x1FA8, symBinAddr: 0x10000DD64, symSize: 0x30 }
  - { offsetInCU: 0x728B, offset: 0x273C7, size: 0x8, addend: 0x0, symName: __ZNSt3__129_AllocatorDestroyRangeReverseINS_9allocatorINS_12basic_stringIcNS_11char_traitsIcEENS1_IcEEEEEEPS6_EC2B7v160006ERS7_RS8_SB_, symObjAddr: 0x1FD8, symBinAddr: 0x10000DD94, symSize: 0x38 }
  - { offsetInCU: 0x72E0, offset: 0x2741C, size: 0x8, addend: 0x0, symName: __ZNSt3__19allocatorINS_12basic_stringIcNS_11char_traitsIcEENS0_IcEEEEE9constructB7v160006IS5_JRS5_EEEvPT_DpOT0_, symObjAddr: 0x2010, symBinAddr: 0x10000DDCC, symSize: 0x30 }
  - { offsetInCU: 0x7334, offset: 0x27470, size: 0x8, addend: 0x0, symName: __ZNSt3__128__exception_guard_exceptionsINS_29_AllocatorDestroyRangeReverseINS_9allocatorINS_12basic_stringIcNS_11char_traitsIcEENS2_IcEEEEEEPS7_EEED2B7v160006Ev, symObjAddr: 0x2040, symBinAddr: 0x10000DDFC, symSize: 0x50 }
  - { offsetInCU: 0x735C, offset: 0x27498, size: 0x8, addend: 0x0, symName: __ZNKSt3__129_AllocatorDestroyRangeReverseINS_9allocatorINS_12basic_stringIcNS_11char_traitsIcEENS1_IcEEEEEEPS6_EclB7v160006Ev, symObjAddr: 0x2090, symBinAddr: 0x10000DE4C, symSize: 0x68 }
  - { offsetInCU: 0x7380, offset: 0x274BC, size: 0x8, addend: 0x0, symName: __ZNSt3__128__exception_guard_exceptionsINS_6vectorINS_12basic_stringIcNS_11char_traitsIcEENS_9allocatorIcEEEENS5_IS7_EEE16__destroy_vectorEED2B7v160006Ev, symObjAddr: 0x2360, symBinAddr: 0x10000DF24, symSize: 0x50 }
  - { offsetInCU: 0x73AD, offset: 0x274E9, size: 0x8, addend: 0x0, symName: __ZNKSt3__16vectorINS_12basic_stringIcNS_11char_traitsIcEENS_9allocatorIcEEEENS4_IS6_EEE11__make_iterB7v160006EPKS6_, symObjAddr: 0x32D8, symBinAddr: 0x10000DF74, symSize: 0x34 }
  - { offsetInCU: 0x73E0, offset: 0x2751C, size: 0x8, addend: 0x0, symName: __ZNSt3__111__wrap_iterIPKNS_12basic_stringIcNS_11char_traitsIcEENS_9allocatorIcEEEEEC1B7v160006EPKvS8_, symObjAddr: 0x330C, symBinAddr: 0x10000DFA8, symSize: 0x3C }
  - { offsetInCU: 0x7424, offset: 0x27560, size: 0x8, addend: 0x0, symName: __ZNSt3__111__wrap_iterIPKNS_12basic_stringIcNS_11char_traitsIcEENS_9allocatorIcEEEEEC2B7v160006EPKvS8_, symObjAddr: 0x3348, symBinAddr: 0x10000DFE4, symSize: 0x24 }
  - { offsetInCU: 0x487F, offset: 0x2BE9A, size: 0x8, addend: 0x0, symName: __ZNSt3__17getlineB7v160006IcNS_11char_traitsIcEENS_9allocatorIcEEEERNS_13basic_istreamIT_T0_EES9_RNS_12basic_stringIS6_S7_T1_EE, symObjAddr: 0x150, symBinAddr: 0x10000E12C, symSize: 0x5C }
  - { offsetInCU: 0x48D7, offset: 0x2BEF2, size: 0x8, addend: 0x0, symName: __ZNSt3__17getlineB7v160006IcNS_11char_traitsIcEENS_9allocatorIcEEEERNS_13basic_istreamIT_T0_EES9_RNS_12basic_stringIS6_S7_T1_EES6_, symObjAddr: 0x534, symBinAddr: 0x10000E238, symSize: 0x238 }
  - { offsetInCU: 0x714A, offset: 0x2E765, size: 0x8, addend: 0x0, symName: _main, symObjAddr: 0x0, symBinAddr: 0x10000E008, symSize: 0x124 }
  - { offsetInCU: 0x735F, offset: 0x2E97A, size: 0x8, addend: 0x0, symName: __ZN11QueryParserD1Ev, symObjAddr: 0x2A4, symBinAddr: 0x10000E188, symSize: 0x2C }
  - { offsetInCU: 0x7389, offset: 0x2E9A4, size: 0x8, addend: 0x0, symName: __ZN11QueryParserD2Ev, symObjAddr: 0x2D0, symBinAddr: 0x10000E1B4, symSize: 0x2C }
  - { offsetInCU: 0x73B3, offset: 0x2E9CE, size: 0x8, addend: 0x0, symName: __ZN11TokenStreamD1Ev, symObjAddr: 0x2FC, symBinAddr: 0x10000E1E0, symSize: 0x2C }
  - { offsetInCU: 0x73DD, offset: 0x2E9F8, size: 0x8, addend: 0x0, symName: __ZN11TokenStreamD2Ev, symObjAddr: 0x328, symBinAddr: 0x10000E20C, symSize: 0x2C }
  - { offsetInCU: 0x74AE, offset: 0x2EAC9, size: 0x8, addend: 0x0, symName: __ZNKSt3__113basic_istreamIcNS_11char_traitsIcEEE6sentrycvbB7v160006Ev, symObjAddr: 0x7F0, symBinAddr: 0x10000E470, symSize: 0x1C }
  - { offsetInCU: 0x74D3, offset: 0x2EAEE, size: 0x8, addend: 0x0, symName: __ZNSt3__115basic_streambufIcNS_11char_traitsIcEEE6sbumpcB7v160006Ev, symObjAddr: 0x8B8, symBinAddr: 0x10000E48C, symSize: 0x78 }
  - { offsetInCU: 0x74F7, offset: 0x2EB12, size: 0x8, addend: 0x0, symName: __ZNSt3__111char_traitsIcE12to_char_typeEi, symObjAddr: 0x960, symBinAddr: 0x10000E504, symSize: 0x18 }
  - { offsetInCU: 0x751A, offset: 0x2EB35, size: 0x8, addend: 0x0, symName: __ZNSt3__111char_traitsIcE2eqEcc, symObjAddr: 0x978, symBinAddr: 0x10000E51C, symSize: 0x28 }
  - { offsetInCU: 0x754B, offset: 0x2EB66, size: 0x8, addend: 0x0, symName: __ZNKSt3__112basic_stringIcNS_11char_traitsIcEENS_9allocatorIcEEE8max_sizeB7v160006Ev, symObjAddr: 0x9F4, symBinAddr: 0x10000E544, symSize: 0xAC }
  - { offsetInCU: 0x759B, offset: 0x2EBB6, size: 0x8, addend: 0x0, symName: __ZNSt3__18ios_base18__setstate_nothrowB7v160006Ej, symObjAddr: 0xAA0, symBinAddr: 0x10000E5F0, symSize: 0x64 }
  - { offsetInCU: 0x75CF, offset: 0x2EBEA, size: 0x8, addend: 0x0, symName: __ZNKSt3__19basic_iosIcNS_11char_traitsIcEEE10exceptionsB7v160006Ev, symObjAddr: 0xB04, symBinAddr: 0x10000E654, symSize: 0x24 }
  - { offsetInCU: 0x75F3, offset: 0x2EC0E, size: 0x8, addend: 0x0, symName: __ZNSt3__111char_traitsIcE11to_int_typeEc, symObjAddr: 0xD24, symBinAddr: 0x10000E678, symSize: 0x14 }
  - { offsetInCU: 0x7620, offset: 0x2EC3B, size: 0x8, addend: 0x0, symName: __ZNSt3__116allocator_traitsINS_9allocatorIcEEE8max_sizeB7v160006IS2_vEEmRKS2_, symObjAddr: 0xD94, symBinAddr: 0x10000E68C, symSize: 0x24 }
  - { offsetInCU: 0x764E, offset: 0x2EC69, size: 0x8, addend: 0x0, symName: __ZNKSt3__112basic_stringIcNS_11char_traitsIcEENS_9allocatorIcEEE7__allocB7v160006Ev, symObjAddr: 0xDB8, symBinAddr: 0x10000E6B0, symSize: 0x24 }
  - { offsetInCU: 0x7672, offset: 0x2EC8D, size: 0x8, addend: 0x0, symName: __ZNSt3__114numeric_limitsImE3maxB7v160006Ev, symObjAddr: 0xDDC, symBinAddr: 0x10000E6D4, symSize: 0x14 }
  - { offsetInCU: 0x7686, offset: 0x2ECA1, size: 0x8, addend: 0x0, symName: __ZNKSt3__19allocatorIcE8max_sizeB7v160006Ev, symObjAddr: 0xDF0, symBinAddr: 0x10000E6E8, symSize: 0x14 }
  - { offsetInCU: 0x76AB, offset: 0x2ECC6, size: 0x8, addend: 0x0, symName: __ZNKSt3__117__compressed_pairINS_12basic_stringIcNS_11char_traitsIcEENS_9allocatorIcEEE5__repES5_E6secondB7v160006Ev, symObjAddr: 0xE04, symBinAddr: 0x10000E6FC, symSize: 0x24 }
  - { offsetInCU: 0x76CF, offset: 0x2ECEA, size: 0x8, addend: 0x0, symName: __ZNKSt3__122__compressed_pair_elemINS_9allocatorIcEELi1ELb1EE5__getB7v160006Ev, symObjAddr: 0xE28, symBinAddr: 0x10000E720, symSize: 0x14 }
  - { offsetInCU: 0x76F4, offset: 0x2ED0F, size: 0x8, addend: 0x0, symName: __ZNSt3__123__libcpp_numeric_limitsImLb1EE3maxB7v160006Ev, symObjAddr: 0xE3C, symBinAddr: 0x10000E734, symSize: 0x8 }
  - { offsetInCU: 0x7708, offset: 0x2ED23, size: 0x8, addend: 0x0, symName: __ZNKSt3__18ios_base10exceptionsB7v160006Ev, symObjAddr: 0xE44, symBinAddr: 0x10000E73C, symSize: 0x18 }
...
